
AVR128DA.elf:     file format elf32-avr

Sections:
Idx Name          Size      VMA       LMA       File off  Algn
  0 .data         00000034  00804000  00002c34  00002cc8  2**0
                  CONTENTS, ALLOC, LOAD, DATA
  1 .text         00002c34  00000000  00000000  00000094  2**1
                  CONTENTS, ALLOC, LOAD, READONLY, CODE
  2 .bss          000003bd  00804034  00804034  00002cfc  2**0
                  ALLOC
  3 .comment      0000005c  00000000  00000000  00002cfc  2**0
                  CONTENTS, READONLY
  4 .note.gnu.avr.deviceinfo 00000040  00000000  00000000  00002d58  2**2
                  CONTENTS, READONLY
  5 .debug_aranges 00000318  00000000  00000000  00002d98  2**0
                  CONTENTS, READONLY, DEBUGGING
  6 .debug_info   00006d85  00000000  00000000  000030b0  2**0
                  CONTENTS, READONLY, DEBUGGING
  7 .debug_abbrev 000037d4  00000000  00000000  00009e35  2**0
                  CONTENTS, READONLY, DEBUGGING
  8 .debug_line   00001ef4  00000000  00000000  0000d609  2**0
                  CONTENTS, READONLY, DEBUGGING
  9 .debug_frame  00000a0c  00000000  00000000  0000f500  2**2
                  CONTENTS, READONLY, DEBUGGING
 10 .debug_str    0000203e  00000000  00000000  0000ff0c  2**0
                  CONTENTS, READONLY, DEBUGGING
 11 .debug_loc    00002faa  00000000  00000000  00011f4a  2**0
                  CONTENTS, READONLY, DEBUGGING
 12 .debug_ranges 000002a8  00000000  00000000  00014ef4  2**0
                  CONTENTS, READONLY, DEBUGGING

Disassembly of section .text:

00000000 <__vectors>:
       0:	0c 94 0d 01 	jmp	0x21a	; 0x21a <__ctors_end>
       4:	0c 94 2c 01 	jmp	0x258	; 0x258 <__bad_interrupt>
       8:	0c 94 2c 01 	jmp	0x258	; 0x258 <__bad_interrupt>
       c:	0c 94 2c 01 	jmp	0x258	; 0x258 <__bad_interrupt>
      10:	0c 94 2c 01 	jmp	0x258	; 0x258 <__bad_interrupt>
      14:	0c 94 2c 01 	jmp	0x258	; 0x258 <__bad_interrupt>
      18:	0c 94 2c 01 	jmp	0x258	; 0x258 <__bad_interrupt>
      1c:	0c 94 2c 01 	jmp	0x258	; 0x258 <__bad_interrupt>
      20:	0c 94 2c 01 	jmp	0x258	; 0x258 <__bad_interrupt>
      24:	0c 94 2c 01 	jmp	0x258	; 0x258 <__bad_interrupt>
      28:	0c 94 2c 01 	jmp	0x258	; 0x258 <__bad_interrupt>
      2c:	0c 94 2c 01 	jmp	0x258	; 0x258 <__bad_interrupt>
      30:	0c 94 d2 01 	jmp	0x3a4	; 0x3a4 <__vector_12>
      34:	0c 94 2c 01 	jmp	0x258	; 0x258 <__bad_interrupt>
      38:	0c 94 2c 01 	jmp	0x258	; 0x258 <__bad_interrupt>
      3c:	0c 94 2c 01 	jmp	0x258	; 0x258 <__bad_interrupt>
      40:	0c 94 2c 01 	jmp	0x258	; 0x258 <__bad_interrupt>
      44:	0c 94 2c 01 	jmp	0x258	; 0x258 <__bad_interrupt>
      48:	0c 94 2c 01 	jmp	0x258	; 0x258 <__bad_interrupt>
      4c:	0c 94 2c 01 	jmp	0x258	; 0x258 <__bad_interrupt>
      50:	0c 94 2c 01 	jmp	0x258	; 0x258 <__bad_interrupt>
      54:	0c 94 2c 01 	jmp	0x258	; 0x258 <__bad_interrupt>
      58:	0c 94 2c 01 	jmp	0x258	; 0x258 <__bad_interrupt>
      5c:	0c 94 2c 01 	jmp	0x258	; 0x258 <__bad_interrupt>
      60:	0c 94 2c 01 	jmp	0x258	; 0x258 <__bad_interrupt>
      64:	0c 94 2c 01 	jmp	0x258	; 0x258 <__bad_interrupt>
      68:	0c 94 2c 01 	jmp	0x258	; 0x258 <__bad_interrupt>
      6c:	0c 94 2c 01 	jmp	0x258	; 0x258 <__bad_interrupt>
      70:	0c 94 2c 01 	jmp	0x258	; 0x258 <__bad_interrupt>
      74:	0c 94 2c 01 	jmp	0x258	; 0x258 <__bad_interrupt>
      78:	0c 94 2c 01 	jmp	0x258	; 0x258 <__bad_interrupt>
      7c:	0c 94 2d 0d 	jmp	0x1a5a	; 0x1a5a <__vector_31>
      80:	0c 94 2c 01 	jmp	0x258	; 0x258 <__bad_interrupt>
      84:	0c 94 2c 01 	jmp	0x258	; 0x258 <__bad_interrupt>
      88:	0c 94 2c 01 	jmp	0x258	; 0x258 <__bad_interrupt>
      8c:	0c 94 2c 01 	jmp	0x258	; 0x258 <__bad_interrupt>
      90:	0c 94 2c 01 	jmp	0x258	; 0x258 <__bad_interrupt>
      94:	0c 94 2c 01 	jmp	0x258	; 0x258 <__bad_interrupt>
      98:	0c 94 2c 01 	jmp	0x258	; 0x258 <__bad_interrupt>
      9c:	0c 94 2c 01 	jmp	0x258	; 0x258 <__bad_interrupt>
      a0:	0c 94 2c 01 	jmp	0x258	; 0x258 <__bad_interrupt>
      a4:	0c 94 2c 01 	jmp	0x258	; 0x258 <__bad_interrupt>
      a8:	0c 94 2c 01 	jmp	0x258	; 0x258 <__bad_interrupt>
      ac:	0c 94 2c 01 	jmp	0x258	; 0x258 <__bad_interrupt>
      b0:	0c 94 2c 01 	jmp	0x258	; 0x258 <__bad_interrupt>
      b4:	0c 94 2c 01 	jmp	0x258	; 0x258 <__bad_interrupt>
      b8:	0c 94 2c 01 	jmp	0x258	; 0x258 <__bad_interrupt>
      bc:	0c 94 2c 01 	jmp	0x258	; 0x258 <__bad_interrupt>
      c0:	0c 94 2c 01 	jmp	0x258	; 0x258 <__bad_interrupt>
      c4:	0c 94 2c 01 	jmp	0x258	; 0x258 <__bad_interrupt>
      c8:	0c 94 2c 01 	jmp	0x258	; 0x258 <__bad_interrupt>
      cc:	0c 94 2c 01 	jmp	0x258	; 0x258 <__bad_interrupt>
      d0:	0c 94 2c 01 	jmp	0x258	; 0x258 <__bad_interrupt>
      d4:	0c 94 2c 01 	jmp	0x258	; 0x258 <__bad_interrupt>
      d8:	0c 94 2c 01 	jmp	0x258	; 0x258 <__bad_interrupt>
      dc:	0c 94 2c 01 	jmp	0x258	; 0x258 <__bad_interrupt>
      e0:	0c 94 2c 01 	jmp	0x258	; 0x258 <__bad_interrupt>
      e4:	0c 94 2c 01 	jmp	0x258	; 0x258 <__bad_interrupt>

000000e8 <__trampolines_end>:
      e8:	4e 41       	sbci	r20, 0x1E	; 30
      ea:	4e 49       	Address 0x000000ea is out of bounds.
.word	0xffff	; ????

000000eb <pstr_inity>:
      eb:	49 4e 49 54 59                                      INITY

000000f0 <pstr_inf>:
      f0:	49 4e 46                                            INF

000000f3 <pwr_m10>:
      f3:	cd cc cc 3d 0a d7 23 3c 17 b7 d1 38 77 cc 2b 32     ...=..#<...8w.+2
     103:	95 95 e6 24 1f b1 4f 0a                             ...$..O.

0000010b <pwr_p10>:
     10b:	00 00 20 41 00 00 c8 42 00 40 1c 46 20 bc be 4c     .. A...B.@.F ..L
     11b:	ca 1b 0e 5a ae c5 9d 74                             ...Z...t

00000123 <__c.5117>:
     123:	7c 0a 20 20 20 00                                   |.   .

00000129 <__c.5109>:
     129:	2e 00                                               ..

0000012b <__c.5107>:
     12b:	25 63 00                                            %c.

0000012e <__c.5105>:
     12e:	20 20 7c 00                                           |.

00000132 <__c.5100>:
     132:	20 30 78 25 30 38 58 00                              0x%08X.

0000013a <__c.5098>:
     13a:	20 30 78 25 30 38 58 3a 20 00                        0x%08X: .

00000144 <__c.5096>:
     144:	3e 3e 20 6d 64 70 20 61 64 64 72 20 5b 73 69 7a     >> mdp addr [siz
     154:	65 5d 20 0a 00                                      e] ..

00000159 <__c.5079>:
     159:	7c 0a 20 20 20 00                                   |.   .

0000015f <__c.5071>:
     15f:	2e 00                                               ..

00000161 <__c.5069>:
     161:	25 63 00                                            %c.

00000164 <__c.5067>:
     164:	20 20 7c 00                                           |.

00000168 <__c.5065>:
     168:	20 30 78 25 30 38 58 00                              0x%08X.

00000170 <__c.5063>:
     170:	20 30 78 25 30 38 58 3a 20 00                        0x%08X: .

0000017a <__c.5061>:
     17a:	3e 3e 20 6d 64 20 61 64 64 72 20 5b 73 69 7a 65     >> md addr [size
     18a:	5d 20 0a 00                                         ] ..

0000018e <__c.5047>:
     18e:	2d 2d 2d 2d 2d 2d 2d 2d 2d 2d 2d 2d 2d 2d 2d 2d     ----------------
     19e:	2d 2d 2d 2d 2d 2d 2d 2d 2d 2d 2d 2d 2d 0d 0a 00     -------------...

000001ae <__c.5042>:
     1ae:	0d 0a 00                                            ...

000001b1 <__c.5039>:
     1b1:	2d 2d 2d 2d 2d 2d 2d 2d 2d 2d 20 63 6d 64 20 6c     ---------- cmd l
     1c1:	69 73 74 20 2d 2d 2d 2d 2d 2d 2d 2d 2d 0d 0a 00     ist ---------...

000001d1 <__c.5037>:
     1d1:	0d 0a 00                                            ...

000001d4 <__c.4891>:
     1d4:	63 6c 69 23 20 00                                   cli# .

000001da <__c.4889>:
     1da:	0a 0d 00                                            ...

000001dd <__c.4961>:
     1dd:	0d 0a 00                                            ...

000001e0 <__c.4938>:
     1e0:	1b 5b 34 68 25 63 1b 5b 34 6c 00                    .[4h%c.[4l.

000001eb <__c.4930>:
     1eb:	08 20 08 1b 5b 31 50 00                             . ..[1P.

000001f3 <__c.4922>:
     1f3:	1b 5b 31 50 00                                      .[1P.

000001f8 <__c.4931>:
     1f8:	69 32 63 20 73 63 61 6e 0a 00                       i2c scan..

00000202 <__c.4926>:
     202:	5b 4f 4b 5d 20 41 64 64 72 20 3a 20 30 78 25 58     [OK] Addr : 0x%X
     212:	0a 00                                               ..

00000214 <pin_tbl>:
     214:	40 04 44 04 06 00                                   @.D...

0000021a <__ctors_end>:
     21a:	11 24       	eor	r1, r1
     21c:	1f be       	out	0x3f, r1	; 63
     21e:	cf ef       	ldi	r28, 0xFF	; 255
     220:	cd bf       	out	0x3d, r28	; 61
     222:	df e7       	ldi	r29, 0x7F	; 127
     224:	de bf       	out	0x3e, r29	; 62

00000226 <__do_copy_data>:
     226:	10 e4       	ldi	r17, 0x40	; 64
     228:	a0 e0       	ldi	r26, 0x00	; 0
     22a:	b0 e4       	ldi	r27, 0x40	; 64
     22c:	e4 e3       	ldi	r30, 0x34	; 52
     22e:	fc e2       	ldi	r31, 0x2C	; 44
     230:	00 e0       	ldi	r16, 0x00	; 0
     232:	0b bf       	out	0x3b, r16	; 59
     234:	02 c0       	rjmp	.+4      	; 0x23a <__do_copy_data+0x14>
     236:	07 90       	elpm	r0, Z+
     238:	0d 92       	st	X+, r0
     23a:	a4 33       	cpi	r26, 0x34	; 52
     23c:	b1 07       	cpc	r27, r17
     23e:	d9 f7       	brne	.-10     	; 0x236 <__do_copy_data+0x10>

00000240 <__do_clear_bss>:
     240:	23 e4       	ldi	r18, 0x43	; 67
     242:	a4 e3       	ldi	r26, 0x34	; 52
     244:	b0 e4       	ldi	r27, 0x40	; 64
     246:	01 c0       	rjmp	.+2      	; 0x24a <.do_clear_bss_start>

00000248 <.do_clear_bss_loop>:
     248:	1d 92       	st	X+, r1

0000024a <.do_clear_bss_start>:
     24a:	a1 3f       	cpi	r26, 0xF1	; 241
     24c:	b2 07       	cpc	r27, r18
     24e:	e1 f7       	brne	.-8      	; 0x248 <.do_clear_bss_loop>
     250:	0e 94 65 0d 	call	0x1aca	; 0x1aca <main>
     254:	0c 94 18 16 	jmp	0x2c30	; 0x2c30 <_exit>

00000258 <__bad_interrupt>:
     258:	0c 94 00 00 	jmp	0	; 0x0 <__vectors>

0000025c <memcpy_PF>:
     25c:	6b bf       	out	0x3b, r22	; 59
     25e:	fa 01       	movw	r30, r20
     260:	dc 01       	movw	r26, r24
     262:	02 c0       	rjmp	.+4      	; 0x268 <memcpy_PF+0xc>
     264:	07 90       	elpm	r0, Z+
     266:	0d 92       	st	X+, r0
     268:	21 50       	subi	r18, 0x01	; 1
     26a:	30 40       	sbci	r19, 0x00	; 0
     26c:	d8 f7       	brcc	.-10     	; 0x264 <memcpy_PF+0x8>
     26e:	08 95       	ret

00000270 <ssd1306_command>:
 */ 

#include "ap.h"

void ssd1306_command(uint8_t c)
{
     270:	cf 93       	push	r28
     272:	c8 2f       	mov	r28, r24
	uint8_t control = 0x00;
	i2cStart(_DEF_I2C1);
     274:	80 e0       	ldi	r24, 0x00	; 0
     276:	0e 94 85 0a 	call	0x150a	; 0x150a <i2cStart>
	i2cSendAddr(_DEF_I2C1, 0x3C << 1);
     27a:	68 e7       	ldi	r22, 0x78	; 120
     27c:	80 e0       	ldi	r24, 0x00	; 0
     27e:	0e 94 b1 0a 	call	0x1562	; 0x1562 <i2cSendAddr>
	i2cSendData(_DEF_I2C1, control);
     282:	60 e0       	ldi	r22, 0x00	; 0
     284:	80 e0       	ldi	r24, 0x00	; 0
     286:	0e 94 e6 0a 	call	0x15cc	; 0x15cc <i2cSendData>
	i2cSendData(_DEF_I2C1, c);
     28a:	6c 2f       	mov	r22, r28
     28c:	80 e0       	ldi	r24, 0x00	; 0
     28e:	0e 94 e6 0a 	call	0x15cc	; 0x15cc <i2cSendData>
	i2cEnd(_DEF_I2C1);
     292:	80 e0       	ldi	r24, 0x00	; 0
     294:	0e 94 17 0b 	call	0x162e	; 0x162e <i2cEnd>
}
     298:	cf 91       	pop	r28
     29a:	08 95       	ret

0000029c <apInit>:

void apInit(void)
{
	cliOpen(_DEF_UART1, 115200);
     29c:	40 e0       	ldi	r20, 0x00	; 0
     29e:	52 ec       	ldi	r21, 0xC2	; 194
     2a0:	61 e0       	ldi	r22, 0x01	; 1
     2a2:	70 e0       	ldi	r23, 0x00	; 0
     2a4:	80 e0       	ldi	r24, 0x00	; 0
     2a6:	0e 94 d3 04 	call	0x9a6	; 0x9a6 <cliOpen>
	i2cBegin(_DEF_I2C1, 100000);
     2aa:	40 ea       	ldi	r20, 0xA0	; 160
     2ac:	56 e8       	ldi	r21, 0x86	; 134
     2ae:	61 e0       	ldi	r22, 0x01	; 1
     2b0:	70 e0       	ldi	r23, 0x00	; 0
     2b2:	80 e0       	ldi	r24, 0x00	; 0
     2b4:	0e 94 59 0a 	call	0x14b2	; 0x14b2 <i2cBegin>
     2b8:	08 95       	ret

000002ba <apMain>:

void apMain(void)
{
	uint32_t preTime;
	
	ssd1306_command(0xAE);
     2ba:	8e ea       	ldi	r24, 0xAE	; 174
     2bc:	0e 94 38 01 	call	0x270	; 0x270 <ssd1306_command>
	ssd1306_command(0xD5);
     2c0:	85 ed       	ldi	r24, 0xD5	; 213
     2c2:	0e 94 38 01 	call	0x270	; 0x270 <ssd1306_command>
	ssd1306_command(0x80);
     2c6:	80 e8       	ldi	r24, 0x80	; 128
     2c8:	0e 94 38 01 	call	0x270	; 0x270 <ssd1306_command>
	ssd1306_command(0xA8);
     2cc:	88 ea       	ldi	r24, 0xA8	; 168
     2ce:	0e 94 38 01 	call	0x270	; 0x270 <ssd1306_command>
	ssd1306_command(32 - 1);
     2d2:	8f e1       	ldi	r24, 0x1F	; 31
     2d4:	0e 94 38 01 	call	0x270	; 0x270 <ssd1306_command>
	ssd1306_command(0xD3);
     2d8:	83 ed       	ldi	r24, 0xD3	; 211
     2da:	0e 94 38 01 	call	0x270	; 0x270 <ssd1306_command>
	ssd1306_command(0x0);
     2de:	80 e0       	ldi	r24, 0x00	; 0
     2e0:	0e 94 38 01 	call	0x270	; 0x270 <ssd1306_command>
	ssd1306_command(0x40 | 0x0);	
     2e4:	80 e4       	ldi	r24, 0x40	; 64
     2e6:	0e 94 38 01 	call	0x270	; 0x270 <ssd1306_command>
	ssd1306_command(0x8D);	
     2ea:	8d e8       	ldi	r24, 0x8D	; 141
     2ec:	0e 94 38 01 	call	0x270	; 0x270 <ssd1306_command>
	ssd1306_command(0x14);		//external vcc
     2f0:	84 e1       	ldi	r24, 0x14	; 20
     2f2:	0e 94 38 01 	call	0x270	; 0x270 <ssd1306_command>
	ssd1306_command(0x20);	
     2f6:	80 e2       	ldi	r24, 0x20	; 32
     2f8:	0e 94 38 01 	call	0x270	; 0x270 <ssd1306_command>
	ssd1306_command(0x0);	
     2fc:	80 e0       	ldi	r24, 0x00	; 0
     2fe:	0e 94 38 01 	call	0x270	; 0x270 <ssd1306_command>
	ssd1306_command(0xA0 | 0x1);	
     302:	81 ea       	ldi	r24, 0xA1	; 161
     304:	0e 94 38 01 	call	0x270	; 0x270 <ssd1306_command>
	ssd1306_command(0xC8);	
     308:	88 ec       	ldi	r24, 0xC8	; 200
     30a:	0e 94 38 01 	call	0x270	; 0x270 <ssd1306_command>
	ssd1306_command(0xDA);	
     30e:	8a ed       	ldi	r24, 0xDA	; 218
     310:	0e 94 38 01 	call	0x270	; 0x270 <ssd1306_command>
	ssd1306_command(0x02);	
     314:	82 e0       	ldi	r24, 0x02	; 2
     316:	0e 94 38 01 	call	0x270	; 0x270 <ssd1306_command>
	ssd1306_command(0x81);	
     31a:	81 e8       	ldi	r24, 0x81	; 129
     31c:	0e 94 38 01 	call	0x270	; 0x270 <ssd1306_command>
	ssd1306_command(0x8F);	
     320:	8f e8       	ldi	r24, 0x8F	; 143
     322:	0e 94 38 01 	call	0x270	; 0x270 <ssd1306_command>
	ssd1306_command(0xD9);	
     326:	89 ed       	ldi	r24, 0xD9	; 217
     328:	0e 94 38 01 	call	0x270	; 0x270 <ssd1306_command>
	ssd1306_command(0xF1);		//external vcc
     32c:	81 ef       	ldi	r24, 0xF1	; 241
     32e:	0e 94 38 01 	call	0x270	; 0x270 <ssd1306_command>
	ssd1306_command(0xDB);	
     332:	8b ed       	ldi	r24, 0xDB	; 219
     334:	0e 94 38 01 	call	0x270	; 0x270 <ssd1306_command>
	ssd1306_command(0x40);	
     338:	80 e4       	ldi	r24, 0x40	; 64
     33a:	0e 94 38 01 	call	0x270	; 0x270 <ssd1306_command>
	ssd1306_command(0xA4);	
     33e:	84 ea       	ldi	r24, 0xA4	; 164
     340:	0e 94 38 01 	call	0x270	; 0x270 <ssd1306_command>
	ssd1306_command(0xA6);
     344:	86 ea       	ldi	r24, 0xA6	; 166
     346:	0e 94 38 01 	call	0x270	; 0x270 <ssd1306_command>
	ssd1306_command(0x2E);	
     34a:	8e e2       	ldi	r24, 0x2E	; 46
     34c:	0e 94 38 01 	call	0x270	; 0x270 <ssd1306_command>
	ssd1306_command(0xAF);
     350:	8f ea       	ldi	r24, 0xAF	; 175
     352:	0e 94 38 01 	call	0x270	; 0x270 <ssd1306_command>
	
	
	ssd1306_command(0x8D);
     356:	8d e8       	ldi	r24, 0x8D	; 141
     358:	0e 94 38 01 	call	0x270	; 0x270 <ssd1306_command>
	ssd1306_command(0x14);		//external vcc
     35c:	84 e1       	ldi	r24, 0x14	; 20
     35e:	0e 94 38 01 	call	0x270	; 0x270 <ssd1306_command>
	ssd1306_command(0xA5);
     362:	85 ea       	ldi	r24, 0xA5	; 165
     364:	0e 94 38 01 	call	0x270	; 0x270 <ssd1306_command>
	ssd1306_command(0xAF);
     368:	8f ea       	ldi	r24, 0xAF	; 175
     36a:	0e 94 38 01 	call	0x270	; 0x270 <ssd1306_command>
	
	preTime = millis();
     36e:	0e 94 1c 02 	call	0x438	; 0x438 <millis>
     372:	6b 01       	movw	r12, r22
     374:	7c 01       	movw	r14, r24
	while (1)
	{
		if(millis() - preTime >= 100)
     376:	0e 94 1c 02 	call	0x438	; 0x438 <millis>
     37a:	dc 01       	movw	r26, r24
     37c:	cb 01       	movw	r24, r22
     37e:	8c 19       	sub	r24, r12
     380:	9d 09       	sbc	r25, r13
     382:	ae 09       	sbc	r26, r14
     384:	bf 09       	sbc	r27, r15
     386:	84 36       	cpi	r24, 0x64	; 100
     388:	91 05       	cpc	r25, r1
     38a:	a1 05       	cpc	r26, r1
     38c:	b1 05       	cpc	r27, r1
     38e:	38 f0       	brcs	.+14     	; 0x39e <apMain+0xe4>
		{
			preTime = millis();
     390:	0e 94 1c 02 	call	0x438	; 0x438 <millis>
     394:	6b 01       	movw	r12, r22
     396:	7c 01       	movw	r14, r24
			ledToggle(_DEF_LED1);
     398:	80 e0       	ldi	r24, 0x00	; 0
     39a:	0e 94 c2 0b 	call	0x1784	; 0x1784 <ledToggle>
		}
		
		cliMain();
     39e:	0e 94 b0 07 	call	0xf60	; 0xf60 <cliMain>
	}
     3a2:	e9 cf       	rjmp	.-46     	; 0x376 <apMain+0xbc>

000003a4 <__vector_12>:

static volatile uint32_t ms_cnt = 0;


ISR(TCB0_INT_vect)
{
     3a4:	1f 92       	push	r1
     3a6:	0f 92       	push	r0
     3a8:	0f b6       	in	r0, 0x3f	; 63
     3aa:	0f 92       	push	r0
     3ac:	11 24       	eor	r1, r1
     3ae:	8f 93       	push	r24
     3b0:	9f 93       	push	r25
     3b2:	af 93       	push	r26
     3b4:	bf 93       	push	r27
	ms_cnt++;
     3b6:	80 91 34 40 	lds	r24, 0x4034	; 0x804034 <__data_end>
     3ba:	90 91 35 40 	lds	r25, 0x4035	; 0x804035 <__data_end+0x1>
     3be:	a0 91 36 40 	lds	r26, 0x4036	; 0x804036 <__data_end+0x2>
     3c2:	b0 91 37 40 	lds	r27, 0x4037	; 0x804037 <__data_end+0x3>
     3c6:	01 96       	adiw	r24, 0x01	; 1
     3c8:	a1 1d       	adc	r26, r1
     3ca:	b1 1d       	adc	r27, r1
     3cc:	80 93 34 40 	sts	0x4034, r24	; 0x804034 <__data_end>
     3d0:	90 93 35 40 	sts	0x4035, r25	; 0x804035 <__data_end+0x1>
     3d4:	a0 93 36 40 	sts	0x4036, r26	; 0x804036 <__data_end+0x2>
     3d8:	b0 93 37 40 	sts	0x4037, r27	; 0x804037 <__data_end+0x3>
	TCB0.INTFLAGS = (1 << TCB_CAPT_bp);
     3dc:	81 e0       	ldi	r24, 0x01	; 1
     3de:	80 93 06 0b 	sts	0x0B06, r24	; 0x800b06 <__TEXT_REGION_LENGTH__+0x7e0b06>
}
     3e2:	bf 91       	pop	r27
     3e4:	af 91       	pop	r26
     3e6:	9f 91       	pop	r25
     3e8:	8f 91       	pop	r24
     3ea:	0f 90       	pop	r0
     3ec:	0f be       	out	0x3f, r0	; 63
     3ee:	0f 90       	pop	r0
     3f0:	1f 90       	pop	r1
     3f2:	18 95       	reti

000003f4 <bspInit>:



bool bspInit(void)
{
	CCP = CCP_IOREG_gc;
     3f4:	88 ed       	ldi	r24, 0xD8	; 216
     3f6:	84 bf       	out	0x34, r24	; 52
	CLKCTRL.XOSC32KCTRLA = (1 << CLKCTRL_ENABLE_bp);
     3f8:	e0 e6       	ldi	r30, 0x60	; 96
     3fa:	f0 e0       	ldi	r31, 0x00	; 0
     3fc:	91 e0       	ldi	r25, 0x01	; 1
     3fe:	94 8f       	std	Z+28, r25	; 0x1c
		
	RTC.CLKSEL = (0x02 << RTC_CLKSEL_gp);
     400:	22 e0       	ldi	r18, 0x02	; 2
     402:	20 93 47 01 	sts	0x0147, r18	; 0x800147 <__TEXT_REGION_LENGTH__+0x7e0147>
		
	CCP = CCP_IOREG_gc;
     406:	84 bf       	out	0x34, r24	; 52
	CLKCTRL.OSCHFCTRLA = (0x09 << CLKCTRL_FREQSEL_gp)     // OSCHF = 24Mhz
     408:	25 e2       	ldi	r18, 0x25	; 37
     40a:	20 87       	std	Z+8, r18	; 0x08
					   | (0x01 << CLKCTRL_AUTOTUNE_bp);   // AUTOTUNE Enable
		
	CCP = CCP_IOREG_gc;
     40c:	84 bf       	out	0x34, r24	; 52
	CLKCTRL.MCLKCTRLA = (0x00 << CLKCTRL_CLKSEL_gp);
     40e:	10 82       	st	Z, r1
		
	CCP = CCP_IOREG_gc;
     410:	84 bf       	out	0x34, r24	; 52
	CLKCTRL.MCLKCTRLB = (0x00 << CLKCTRL_PEN_bp);
     412:	11 82       	std	Z+1, r1	; 0x01
		
		
	TCB0.CTRLA = (0x00 << TCB_CLKSEL_gp);
     414:	e0 e0       	ldi	r30, 0x00	; 0
     416:	fb e0       	ldi	r31, 0x0B	; 11
     418:	10 82       	st	Z, r1
	TCB0.CTRLB = (0x00 << TCB_CNTMODE_gp);
     41a:	11 82       	std	Z+1, r1	; 0x01
	TCB0.INTCTRL = (1 << TCB_CAPT_bp);
     41c:	95 83       	std	Z+5, r25	; 0x05
	TCB0.CCMP = (1000 * (F_CPU / 1000000)) - 1;
     41e:	8f eb       	ldi	r24, 0xBF	; 191
     420:	9d e5       	ldi	r25, 0x5D	; 93
     422:	84 87       	std	Z+12, r24	; 0x0c
     424:	95 87       	std	Z+13, r25	; 0x0d
	TCB0.CTRLA |= (1 << TCB_ENABLE_bp);
     426:	80 81       	ld	r24, Z
     428:	81 60       	ori	r24, 0x01	; 1
     42a:	80 83       	st	Z, r24
		
	PORTC.DIRSET = (1 << 6);
     42c:	80 e4       	ldi	r24, 0x40	; 64
     42e:	80 93 41 04 	sts	0x0441, r24	; 0x800441 <__TEXT_REGION_LENGTH__+0x7e0441>
		
	sei();
     432:	78 94       	sei


	return true;
}
     434:	81 e0       	ldi	r24, 0x01	; 1
     436:	08 95       	ret

00000438 <millis>:
}

uint32_t millis(void)
{
	uint32_t ret;
	uint8_t old_sreg = SREG;
     438:	2f b7       	in	r18, 0x3f	; 63
	
	cli();
     43a:	f8 94       	cli
	ret = ms_cnt;
     43c:	60 91 34 40 	lds	r22, 0x4034	; 0x804034 <__data_end>
     440:	70 91 35 40 	lds	r23, 0x4035	; 0x804035 <__data_end+0x1>
     444:	80 91 36 40 	lds	r24, 0x4036	; 0x804036 <__data_end+0x2>
     448:	90 91 37 40 	lds	r25, 0x4037	; 0x804037 <__data_end+0x3>
	SREG = old_sreg;
     44c:	2f bf       	out	0x3f, r18	; 63

	return ret;
}
     44e:	08 95       	ret

00000450 <qbufferCreate>:
{

}

bool qbufferCreate(qbuffer_t *p_node, uint8_t *p_buf, uint32_t length)
{
     450:	fc 01       	movw	r30, r24
	bool ret = true;


	p_node->ptr_in  = 0;
     452:	10 82       	st	Z, r1
     454:	11 82       	std	Z+1, r1	; 0x01
     456:	12 82       	std	Z+2, r1	; 0x02
     458:	13 82       	std	Z+3, r1	; 0x03
	p_node->ptr_out = 0;
     45a:	14 82       	std	Z+4, r1	; 0x04
     45c:	15 82       	std	Z+5, r1	; 0x05
     45e:	16 82       	std	Z+6, r1	; 0x06
     460:	17 82       	std	Z+7, r1	; 0x07
	p_node->length  = length;
     462:	20 87       	std	Z+8, r18	; 0x08
     464:	31 87       	std	Z+9, r19	; 0x09
     466:	42 87       	std	Z+10, r20	; 0x0a
     468:	53 87       	std	Z+11, r21	; 0x0b
	p_node->p_buf   = p_buf;
     46a:	64 87       	std	Z+12, r22	; 0x0c
     46c:	75 87       	std	Z+13, r23	; 0x0d

	if (p_node->p_buf == NULL)
     46e:	67 2b       	or	r22, r23
     470:	31 f4       	brne	.+12     	; 0x47e <qbufferCreate+0x2e>
	{
		p_node->length = 0;
     472:	10 86       	std	Z+8, r1	; 0x08
     474:	11 86       	std	Z+9, r1	; 0x09
     476:	12 86       	std	Z+10, r1	; 0x0a
     478:	13 86       	std	Z+11, r1	; 0x0b
		ret = false;
     47a:	80 e0       	ldi	r24, 0x00	; 0
     47c:	08 95       	ret

}

bool qbufferCreate(qbuffer_t *p_node, uint8_t *p_buf, uint32_t length)
{
	bool ret = true;
     47e:	81 e0       	ldi	r24, 0x01	; 1
		p_node->length = 0;
		ret = false;
	}

	return ret;
}
     480:	08 95       	ret

00000482 <qbufferWrite>:

bool qbufferWrite(qbuffer_t *p_node, uint8_t *p_data, uint32_t length)
{
     482:	4f 92       	push	r4
     484:	5f 92       	push	r5
     486:	6f 92       	push	r6
     488:	7f 92       	push	r7
     48a:	8f 92       	push	r8
     48c:	9f 92       	push	r9
     48e:	af 92       	push	r10
     490:	bf 92       	push	r11
     492:	cf 92       	push	r12
     494:	df 92       	push	r13
     496:	ef 92       	push	r14
     498:	ff 92       	push	r15
     49a:	0f 93       	push	r16
     49c:	1f 93       	push	r17
     49e:	cf 93       	push	r28
     4a0:	df 93       	push	r29
     4a2:	fc 01       	movw	r30, r24
     4a4:	8b 01       	movw	r16, r22
     4a6:	49 01       	movw	r8, r18
     4a8:	5a 01       	movw	r10, r20
	bool ret = true;
	uint32_t index;
	uint32_t next_index;
	uint32_t i;

	if (p_node->p_buf == NULL) return false;
     4aa:	84 85       	ldd	r24, Z+12	; 0x0c
     4ac:	95 85       	ldd	r25, Z+13	; 0x0d
     4ae:	89 2b       	or	r24, r25
     4b0:	e1 f1       	breq	.+120    	; 0x52a <qbufferWrite+0xa8>
     4b2:	40 e0       	ldi	r20, 0x00	; 0
     4b4:	50 e0       	ldi	r21, 0x00	; 0
     4b6:	ba 01       	movw	r22, r20
     4b8:	31 c0       	rjmp	.+98     	; 0x51c <qbufferWrite+0x9a>


	for (i=0; i<length; i++)
	{
		index      = p_node->ptr_in;
     4ba:	c0 80       	ld	r12, Z
     4bc:	d1 80       	ldd	r13, Z+1	; 0x01
     4be:	e2 80       	ldd	r14, Z+2	; 0x02
     4c0:	f3 80       	ldd	r15, Z+3	; 0x03
		next_index = p_node->ptr_in + 1;
     4c2:	d7 01       	movw	r26, r14
     4c4:	c6 01       	movw	r24, r12
     4c6:	01 96       	adiw	r24, 0x01	; 1
     4c8:	a1 1d       	adc	r26, r1
     4ca:	b1 1d       	adc	r27, r1

		if (next_index == p_node->length)
     4cc:	40 84       	ldd	r4, Z+8	; 0x08
     4ce:	51 84       	ldd	r5, Z+9	; 0x09
     4d0:	62 84       	ldd	r6, Z+10	; 0x0a
     4d2:	73 84       	ldd	r7, Z+11	; 0x0b
     4d4:	84 15       	cp	r24, r4
     4d6:	95 05       	cpc	r25, r5
     4d8:	a6 05       	cpc	r26, r6
     4da:	b7 05       	cpc	r27, r7
     4dc:	19 f4       	brne	.+6      	; 0x4e4 <qbufferWrite+0x62>
		{
			next_index = 0;;
     4de:	80 e0       	ldi	r24, 0x00	; 0
     4e0:	90 e0       	ldi	r25, 0x00	; 0
     4e2:	dc 01       	movw	r26, r24
		}

		if (next_index != p_node->ptr_out)
     4e4:	44 80       	ldd	r4, Z+4	; 0x04
     4e6:	55 80       	ldd	r5, Z+5	; 0x05
     4e8:	66 80       	ldd	r6, Z+6	; 0x06
     4ea:	77 80       	ldd	r7, Z+7	; 0x07
     4ec:	84 15       	cp	r24, r4
     4ee:	95 05       	cpc	r25, r5
     4f0:	a6 05       	cpc	r26, r6
     4f2:	b7 05       	cpc	r27, r7
     4f4:	e1 f0       	breq	.+56     	; 0x52e <qbufferWrite+0xac>
		{
			p_node->p_buf[index] = p_data[i];
     4f6:	c4 85       	ldd	r28, Z+12	; 0x0c
     4f8:	d5 85       	ldd	r29, Z+13	; 0x0d
     4fa:	cc 0e       	add	r12, r28
     4fc:	dd 1e       	adc	r13, r29
     4fe:	78 01       	movw	r14, r16
     500:	e4 0e       	add	r14, r20
     502:	f5 1e       	adc	r15, r21
     504:	e7 01       	movw	r28, r14
     506:	28 81       	ld	r18, Y
     508:	e6 01       	movw	r28, r12
     50a:	28 83       	st	Y, r18
			p_node->ptr_in       = next_index;
     50c:	80 83       	st	Z, r24
     50e:	91 83       	std	Z+1, r25	; 0x01
     510:	a2 83       	std	Z+2, r26	; 0x02
     512:	b3 83       	std	Z+3, r27	; 0x03
	uint32_t i;

	if (p_node->p_buf == NULL) return false;


	for (i=0; i<length; i++)
     514:	4f 5f       	subi	r20, 0xFF	; 255
     516:	5f 4f       	sbci	r21, 0xFF	; 255
     518:	6f 4f       	sbci	r22, 0xFF	; 255
     51a:	7f 4f       	sbci	r23, 0xFF	; 255
     51c:	48 15       	cp	r20, r8
     51e:	59 05       	cpc	r21, r9
     520:	6a 05       	cpc	r22, r10
     522:	7b 05       	cpc	r23, r11
     524:	50 f2       	brcs	.-108    	; 0x4ba <qbufferWrite+0x38>
	return ret;
}

bool qbufferWrite(qbuffer_t *p_node, uint8_t *p_data, uint32_t length)
{
	bool ret = true;
     526:	81 e0       	ldi	r24, 0x01	; 1
     528:	03 c0       	rjmp	.+6      	; 0x530 <qbufferWrite+0xae>
	uint32_t index;
	uint32_t next_index;
	uint32_t i;

	if (p_node->p_buf == NULL) return false;
     52a:	80 e0       	ldi	r24, 0x00	; 0
     52c:	01 c0       	rjmp	.+2      	; 0x530 <qbufferWrite+0xae>
			p_node->p_buf[index] = p_data[i];
			p_node->ptr_in       = next_index;
		}
		else
		{
			ret = false; // ERR_FULL
     52e:	80 e0       	ldi	r24, 0x00	; 0
			break;
		}
	}

	return ret;
}
     530:	df 91       	pop	r29
     532:	cf 91       	pop	r28
     534:	1f 91       	pop	r17
     536:	0f 91       	pop	r16
     538:	ff 90       	pop	r15
     53a:	ef 90       	pop	r14
     53c:	df 90       	pop	r13
     53e:	cf 90       	pop	r12
     540:	bf 90       	pop	r11
     542:	af 90       	pop	r10
     544:	9f 90       	pop	r9
     546:	8f 90       	pop	r8
     548:	7f 90       	pop	r7
     54a:	6f 90       	pop	r6
     54c:	5f 90       	pop	r5
     54e:	4f 90       	pop	r4
     550:	08 95       	ret

00000552 <qbufferRead>:

bool qbufferRead(qbuffer_t *p_node, uint8_t *p_data, uint32_t length)
{
     552:	4f 92       	push	r4
     554:	5f 92       	push	r5
     556:	6f 92       	push	r6
     558:	7f 92       	push	r7
     55a:	8f 92       	push	r8
     55c:	9f 92       	push	r9
     55e:	af 92       	push	r10
     560:	bf 92       	push	r11
     562:	cf 92       	push	r12
     564:	df 92       	push	r13
     566:	ef 92       	push	r14
     568:	ff 92       	push	r15
     56a:	0f 93       	push	r16
     56c:	1f 93       	push	r17
     56e:	cf 93       	push	r28
     570:	df 93       	push	r29
     572:	fc 01       	movw	r30, r24
     574:	cb 01       	movw	r24, r22
     576:	49 01       	movw	r8, r18
     578:	5a 01       	movw	r10, r20
	bool ret = true;
	uint32_t index;
	uint32_t next_index;
	uint32_t i;

	if (p_node->p_buf == NULL) return false;
     57a:	24 85       	ldd	r18, Z+12	; 0x0c
     57c:	35 85       	ldd	r19, Z+13	; 0x0d
     57e:	23 2b       	or	r18, r19
     580:	e1 f1       	breq	.+120    	; 0x5fa <qbufferRead+0xa8>
     582:	40 e0       	ldi	r20, 0x00	; 0
     584:	50 e0       	ldi	r21, 0x00	; 0
     586:	ba 01       	movw	r22, r20
     588:	31 c0       	rjmp	.+98     	; 0x5ec <qbufferRead+0x9a>


	for (i=0; i<length; i++)
	{
		index      = p_node->ptr_out;
     58a:	04 81       	ldd	r16, Z+4	; 0x04
     58c:	15 81       	ldd	r17, Z+5	; 0x05
     58e:	26 81       	ldd	r18, Z+6	; 0x06
     590:	37 81       	ldd	r19, Z+7	; 0x07
		next_index = p_node->ptr_out + 1;
     592:	68 01       	movw	r12, r16
     594:	79 01       	movw	r14, r18
     596:	af ef       	ldi	r26, 0xFF	; 255
     598:	ca 1a       	sub	r12, r26
     59a:	da 0a       	sbc	r13, r26
     59c:	ea 0a       	sbc	r14, r26
     59e:	fa 0a       	sbc	r15, r26

		if (next_index == p_node->length)
     5a0:	40 84       	ldd	r4, Z+8	; 0x08
     5a2:	51 84       	ldd	r5, Z+9	; 0x09
     5a4:	62 84       	ldd	r6, Z+10	; 0x0a
     5a6:	73 84       	ldd	r7, Z+11	; 0x0b
     5a8:	c4 14       	cp	r12, r4
     5aa:	d5 04       	cpc	r13, r5
     5ac:	e6 04       	cpc	r14, r6
     5ae:	f7 04       	cpc	r15, r7
     5b0:	19 f4       	brne	.+6      	; 0x5b8 <qbufferRead+0x66>
		{
			next_index = 0;
     5b2:	c1 2c       	mov	r12, r1
     5b4:	d1 2c       	mov	r13, r1
     5b6:	76 01       	movw	r14, r12
		}

		if (index != p_node->ptr_in)
     5b8:	40 80       	ld	r4, Z
     5ba:	51 80       	ldd	r5, Z+1	; 0x01
     5bc:	62 80       	ldd	r6, Z+2	; 0x02
     5be:	73 80       	ldd	r7, Z+3	; 0x03
     5c0:	04 15       	cp	r16, r4
     5c2:	15 05       	cpc	r17, r5
     5c4:	26 05       	cpc	r18, r6
     5c6:	37 05       	cpc	r19, r7
     5c8:	d1 f0       	breq	.+52     	; 0x5fe <qbufferRead+0xac>
		{
			p_data[i]       = p_node->p_buf[index];
     5ca:	dc 01       	movw	r26, r24
     5cc:	a4 0f       	add	r26, r20
     5ce:	b5 1f       	adc	r27, r21
     5d0:	c4 85       	ldd	r28, Z+12	; 0x0c
     5d2:	d5 85       	ldd	r29, Z+13	; 0x0d
     5d4:	c0 0f       	add	r28, r16
     5d6:	d1 1f       	adc	r29, r17
     5d8:	28 81       	ld	r18, Y
     5da:	2c 93       	st	X, r18
			p_node->ptr_out = next_index;
     5dc:	c4 82       	std	Z+4, r12	; 0x04
     5de:	d5 82       	std	Z+5, r13	; 0x05
     5e0:	e6 82       	std	Z+6, r14	; 0x06
     5e2:	f7 82       	std	Z+7, r15	; 0x07
	uint32_t i;

	if (p_node->p_buf == NULL) return false;


	for (i=0; i<length; i++)
     5e4:	4f 5f       	subi	r20, 0xFF	; 255
     5e6:	5f 4f       	sbci	r21, 0xFF	; 255
     5e8:	6f 4f       	sbci	r22, 0xFF	; 255
     5ea:	7f 4f       	sbci	r23, 0xFF	; 255
     5ec:	48 15       	cp	r20, r8
     5ee:	59 05       	cpc	r21, r9
     5f0:	6a 05       	cpc	r22, r10
     5f2:	7b 05       	cpc	r23, r11
     5f4:	50 f2       	brcs	.-108    	; 0x58a <qbufferRead+0x38>
	return ret;
}

bool qbufferRead(qbuffer_t *p_node, uint8_t *p_data, uint32_t length)
{
	bool ret = true;
     5f6:	81 e0       	ldi	r24, 0x01	; 1
     5f8:	03 c0       	rjmp	.+6      	; 0x600 <qbufferRead+0xae>
	uint32_t index;
	uint32_t next_index;
	uint32_t i;

	if (p_node->p_buf == NULL) return false;
     5fa:	80 e0       	ldi	r24, 0x00	; 0
     5fc:	01 c0       	rjmp	.+2      	; 0x600 <qbufferRead+0xae>
			p_data[i]       = p_node->p_buf[index];
			p_node->ptr_out = next_index;
		}
		else
		{
			ret = false; // ERR_EMPTY
     5fe:	80 e0       	ldi	r24, 0x00	; 0
			break;
		}
	}

	return ret;
}
     600:	df 91       	pop	r29
     602:	cf 91       	pop	r28
     604:	1f 91       	pop	r17
     606:	0f 91       	pop	r16
     608:	ff 90       	pop	r15
     60a:	ef 90       	pop	r14
     60c:	df 90       	pop	r13
     60e:	cf 90       	pop	r12
     610:	bf 90       	pop	r11
     612:	af 90       	pop	r10
     614:	9f 90       	pop	r9
     616:	8f 90       	pop	r8
     618:	7f 90       	pop	r7
     61a:	6f 90       	pop	r6
     61c:	5f 90       	pop	r5
     61e:	4f 90       	pop	r4
     620:	08 95       	ret

00000622 <qbufferAvailable>:

uint32_t qbufferAvailable(qbuffer_t *p_node)
{
     622:	cf 92       	push	r12
     624:	df 92       	push	r13
     626:	ef 92       	push	r14
     628:	ff 92       	push	r15
     62a:	fc 01       	movw	r30, r24
	uint32_t length;


	length = (p_node->length + p_node->ptr_in - p_node->ptr_out) % p_node->length;
     62c:	20 85       	ldd	r18, Z+8	; 0x08
     62e:	31 85       	ldd	r19, Z+9	; 0x09
     630:	42 85       	ldd	r20, Z+10	; 0x0a
     632:	53 85       	ldd	r21, Z+11	; 0x0b
     634:	80 81       	ld	r24, Z
     636:	91 81       	ldd	r25, Z+1	; 0x01
     638:	a2 81       	ldd	r26, Z+2	; 0x02
     63a:	b3 81       	ldd	r27, Z+3	; 0x03
     63c:	82 0f       	add	r24, r18
     63e:	93 1f       	adc	r25, r19
     640:	a4 1f       	adc	r26, r20
     642:	b5 1f       	adc	r27, r21
     644:	c4 80       	ldd	r12, Z+4	; 0x04
     646:	d5 80       	ldd	r13, Z+5	; 0x05
     648:	e6 80       	ldd	r14, Z+6	; 0x06
     64a:	f7 80       	ldd	r15, Z+7	; 0x07
     64c:	bc 01       	movw	r22, r24
     64e:	cd 01       	movw	r24, r26
     650:	6c 19       	sub	r22, r12
     652:	7d 09       	sbc	r23, r13
     654:	8e 09       	sbc	r24, r14
     656:	9f 09       	sbc	r25, r15
     658:	0e 94 8b 0f 	call	0x1f16	; 0x1f16 <__udivmodsi4>

	return length;
}
     65c:	ff 90       	pop	r15
     65e:	ef 90       	pop	r14
     660:	df 90       	pop	r13
     662:	cf 90       	pop	r12
     664:	08 95       	ret

00000666 <cliLineClean>:
	}
	else
	{
		return false;
	}
}
     666:	fc 01       	movw	r30, r24
     668:	ef 5a       	subi	r30, 0xAF	; 175
     66a:	fd 4f       	sbci	r31, 0xFD	; 253
     66c:	10 82       	st	Z, r1
     66e:	31 97       	sbiw	r30, 0x01	; 1
     670:	10 82       	st	Z, r1
     672:	31 97       	sbiw	r30, 0x01	; 1
     674:	2f e2       	ldi	r18, 0x2F	; 47
     676:	20 83       	st	Z, r18
     678:	f0 97       	sbiw	r30, 0x30	; 48
     67a:	10 82       	st	Z, r1
     67c:	08 95       	ret

0000067e <cliLineAdd>:
     67e:	fc 01       	movw	r30, r24
     680:	ef 5a       	subi	r30, 0xAF	; 175
     682:	fe 4f       	sbci	r31, 0xFE	; 254
     684:	50 81       	ld	r21, Z
     686:	25 2f       	mov	r18, r21
     688:	30 e0       	ldi	r19, 0x00	; 0
     68a:	43 e3       	ldi	r20, 0x33	; 51
     68c:	42 9f       	mul	r20, r18
     68e:	d0 01       	movw	r26, r0
     690:	43 9f       	mul	r20, r19
     692:	b0 0d       	add	r27, r0
     694:	11 24       	eor	r1, r1
     696:	a8 0f       	add	r26, r24
     698:	b9 1f       	adc	r27, r25
     69a:	ad 5a       	subi	r26, 0xAD	; 173
     69c:	be 4f       	sbci	r27, 0xFE	; 254
     69e:	e2 53       	subi	r30, 0x32	; 50
     6a0:	ff 4f       	sbci	r31, 0xFF	; 255
     6a2:	01 90       	ld	r0, Z+
     6a4:	0d 92       	st	X+, r0
     6a6:	4a 95       	dec	r20
     6a8:	e1 f7       	brne	.-8      	; 0x6a2 <cliLineAdd+0x24>
     6aa:	fc 01       	movw	r30, r24
     6ac:	ee 5a       	subi	r30, 0xAE	; 174
     6ae:	fe 4f       	sbci	r31, 0xFE	; 254
     6b0:	40 81       	ld	r20, Z
     6b2:	44 30       	cpi	r20, 0x04	; 4
     6b4:	10 f4       	brcc	.+4      	; 0x6ba <cliLineAdd+0x3c>
     6b6:	4f 5f       	subi	r20, 0xFF	; 255
     6b8:	40 83       	st	Z, r20
     6ba:	fc 01       	movw	r30, r24
     6bc:	e0 5b       	subi	r30, 0xB0	; 176
     6be:	fe 4f       	sbci	r31, 0xFE	; 254
     6c0:	50 83       	st	Z, r21
     6c2:	2f 5f       	subi	r18, 0xFF	; 255
     6c4:	3f 4f       	sbci	r19, 0xFF	; 255
     6c6:	23 70       	andi	r18, 0x03	; 3
     6c8:	30 78       	andi	r19, 0x80	; 128
     6ca:	33 23       	and	r19, r19
     6cc:	34 f4       	brge	.+12     	; 0x6da <cliLineAdd+0x5c>
     6ce:	21 50       	subi	r18, 0x01	; 1
     6d0:	31 09       	sbc	r19, r1
     6d2:	2c 6f       	ori	r18, 0xFC	; 252
     6d4:	3f 6f       	ori	r19, 0xFF	; 255
     6d6:	2f 5f       	subi	r18, 0xFF	; 255
     6d8:	3f 4f       	sbci	r19, 0xFF	; 255
     6da:	fc 01       	movw	r30, r24
     6dc:	ef 5a       	subi	r30, 0xAF	; 175
     6de:	fe 4f       	sbci	r31, 0xFE	; 254
     6e0:	20 83       	st	Z, r18
     6e2:	32 97       	sbiw	r30, 0x02	; 2
     6e4:	21 e0       	ldi	r18, 0x01	; 1
     6e6:	20 83       	st	Z, r18
     6e8:	08 95       	ret

000006ea <cliToUpper>:
     6ea:	fc 01       	movw	r30, r24
     6ec:	20 e0       	ldi	r18, 0x00	; 0
     6ee:	30 e0       	ldi	r19, 0x00	; 0
     6f0:	0e c0       	rjmp	.+28     	; 0x70e <cliToUpper+0x24>
     6f2:	df 01       	movw	r26, r30
     6f4:	a2 0f       	add	r26, r18
     6f6:	b3 1f       	adc	r27, r19
     6f8:	9c 91       	ld	r25, X
     6fa:	99 23       	and	r25, r25
     6fc:	59 f0       	breq	.+22     	; 0x714 <cliToUpper+0x2a>
     6fe:	4f e9       	ldi	r20, 0x9F	; 159
     700:	49 0f       	add	r20, r25
     702:	4a 31       	cpi	r20, 0x1A	; 26
     704:	08 f4       	brcc	.+2      	; 0x708 <cliToUpper+0x1e>
     706:	90 52       	subi	r25, 0x20	; 32
     708:	9c 93       	st	X, r25
     70a:	2f 5f       	subi	r18, 0xFF	; 255
     70c:	3f 4f       	sbci	r19, 0xFF	; 255
     70e:	2e 30       	cpi	r18, 0x0E	; 14
     710:	31 05       	cpc	r19, r1
     712:	78 f3       	brcs	.-34     	; 0x6f2 <cliToUpper+0x8>
     714:	2e 30       	cpi	r18, 0x0E	; 14
     716:	31 05       	cpc	r19, r1
     718:	29 f4       	brne	.+10     	; 0x724 <cliToUpper+0x3a>
     71a:	21 50       	subi	r18, 0x01	; 1
     71c:	31 09       	sbc	r19, r1
     71e:	e2 0f       	add	r30, r18
     720:	f3 1f       	adc	r31, r19
     722:	10 82       	st	Z, r1
     724:	08 95       	ret

00000726 <cliArgsGetStr>:
     726:	90 e0       	ldi	r25, 0x00	; 0
     728:	20 91 8c 43 	lds	r18, 0x438C	; 0x80438c <cli_node+0x354>
     72c:	30 91 8d 43 	lds	r19, 0x438D	; 0x80438d <cli_node+0x355>
     730:	82 17       	cp	r24, r18
     732:	93 07       	cpc	r25, r19
     734:	58 f4       	brcc	.+22     	; 0x74c <cliArgsGetStr+0x26>
     736:	e0 91 8e 43 	lds	r30, 0x438E	; 0x80438e <cli_node+0x356>
     73a:	f0 91 8f 43 	lds	r31, 0x438F	; 0x80438f <cli_node+0x357>
     73e:	88 0f       	add	r24, r24
     740:	99 1f       	adc	r25, r25
     742:	e8 0f       	add	r30, r24
     744:	f9 1f       	adc	r31, r25
     746:	80 81       	ld	r24, Z
     748:	91 81       	ldd	r25, Z+1	; 0x01
     74a:	08 95       	ret
     74c:	80 e0       	ldi	r24, 0x00	; 0
     74e:	90 e0       	ldi	r25, 0x00	; 0
     750:	08 95       	ret

00000752 <cliArgsIsStr>:
     752:	28 2f       	mov	r18, r24
     754:	30 e0       	ldi	r19, 0x00	; 0
     756:	80 91 8c 43 	lds	r24, 0x438C	; 0x80438c <cli_node+0x354>
     75a:	90 91 8d 43 	lds	r25, 0x438D	; 0x80438d <cli_node+0x355>
     75e:	28 17       	cp	r18, r24
     760:	39 07       	cpc	r19, r25
     762:	88 f4       	brcc	.+34     	; 0x786 <cliArgsIsStr+0x34>
     764:	cb 01       	movw	r24, r22
     766:	e0 91 8e 43 	lds	r30, 0x438E	; 0x80438e <cli_node+0x356>
     76a:	f0 91 8f 43 	lds	r31, 0x438F	; 0x80438f <cli_node+0x357>
     76e:	22 0f       	add	r18, r18
     770:	33 1f       	adc	r19, r19
     772:	e2 0f       	add	r30, r18
     774:	f3 1f       	adc	r31, r19
     776:	60 81       	ld	r22, Z
     778:	71 81       	ldd	r23, Z+1	; 0x01
     77a:	0e 94 69 12 	call	0x24d2	; 0x24d2 <strcmp>
     77e:	89 2b       	or	r24, r25
     780:	21 f0       	breq	.+8      	; 0x78a <cliArgsIsStr+0x38>
     782:	80 e0       	ldi	r24, 0x00	; 0
     784:	08 95       	ret
     786:	80 e0       	ldi	r24, 0x00	; 0
     788:	08 95       	ret
     78a:	81 e0       	ldi	r24, 0x01	; 1
     78c:	08 95       	ret

0000078e <cliArgsGetFloat>:
     78e:	90 e0       	ldi	r25, 0x00	; 0
     790:	20 91 8c 43 	lds	r18, 0x438C	; 0x80438c <cli_node+0x354>
     794:	30 91 8d 43 	lds	r19, 0x438D	; 0x80438d <cli_node+0x355>
     798:	82 17       	cp	r24, r18
     79a:	93 07       	cpc	r25, r19
     79c:	78 f4       	brcc	.+30     	; 0x7bc <cliArgsGetFloat+0x2e>
     79e:	e0 91 8e 43 	lds	r30, 0x438E	; 0x80438e <cli_node+0x356>
     7a2:	f0 91 8f 43 	lds	r31, 0x438F	; 0x80438f <cli_node+0x357>
     7a6:	88 0f       	add	r24, r24
     7a8:	99 1f       	adc	r25, r25
     7aa:	e8 0f       	add	r30, r24
     7ac:	f9 1f       	adc	r31, r25
     7ae:	60 e0       	ldi	r22, 0x00	; 0
     7b0:	70 e0       	ldi	r23, 0x00	; 0
     7b2:	80 81       	ld	r24, Z
     7b4:	91 81       	ldd	r25, Z+1	; 0x01
     7b6:	0e 94 c1 0f 	call	0x1f82	; 0x1f82 <strtod>
     7ba:	08 95       	ret
     7bc:	60 e0       	ldi	r22, 0x00	; 0
     7be:	70 e0       	ldi	r23, 0x00	; 0
     7c0:	cb 01       	movw	r24, r22
     7c2:	08 95       	ret

000007c4 <cliArgsGetData>:
     7c4:	90 e0       	ldi	r25, 0x00	; 0
     7c6:	20 91 8c 43 	lds	r18, 0x438C	; 0x80438c <cli_node+0x354>
     7ca:	30 91 8d 43 	lds	r19, 0x438D	; 0x80438d <cli_node+0x355>
     7ce:	82 17       	cp	r24, r18
     7d0:	93 07       	cpc	r25, r19
     7d2:	88 f4       	brcc	.+34     	; 0x7f6 <cliArgsGetData+0x32>
     7d4:	e0 91 8e 43 	lds	r30, 0x438E	; 0x80438e <cli_node+0x356>
     7d8:	f0 91 8f 43 	lds	r31, 0x438F	; 0x80438f <cli_node+0x357>
     7dc:	88 0f       	add	r24, r24
     7de:	99 1f       	adc	r25, r25
     7e0:	e8 0f       	add	r30, r24
     7e2:	f9 1f       	adc	r31, r25
     7e4:	40 e0       	ldi	r20, 0x00	; 0
     7e6:	50 e0       	ldi	r21, 0x00	; 0
     7e8:	60 e0       	ldi	r22, 0x00	; 0
     7ea:	70 e0       	ldi	r23, 0x00	; 0
     7ec:	80 81       	ld	r24, Z
     7ee:	91 81       	ldd	r25, Z+1	; 0x01
     7f0:	0e 94 1d 11 	call	0x223a	; 0x223a <strtoul>
     7f4:	08 95       	ret
     7f6:	60 e0       	ldi	r22, 0x00	; 0
     7f8:	70 e0       	ldi	r23, 0x00	; 0
     7fa:	80 e0       	ldi	r24, 0x00	; 0
     7fc:	90 e0       	ldi	r25, 0x00	; 0
     7fe:	08 95       	ret

00000800 <cliLineChange>:
     800:	1f 93       	push	r17
     802:	cf 93       	push	r28
     804:	df 93       	push	r29
     806:	fc 01       	movw	r30, r24
     808:	ee 5a       	subi	r30, 0xAE	; 174
     80a:	fe 4f       	sbci	r31, 0xFE	; 254
     80c:	20 81       	ld	r18, Z
     80e:	22 23       	and	r18, r18
     810:	09 f4       	brne	.+2      	; 0x814 <cliLineChange+0x14>
     812:	74 c0       	rjmp	.+232    	; 0x8fc <cliLineChange+0xfc>
     814:	16 2f       	mov	r17, r22
     816:	ec 01       	movw	r28, r24
     818:	e2 50       	subi	r30, 0x02	; 2
     81a:	ff 4f       	sbci	r31, 0xFF	; 255
     81c:	80 81       	ld	r24, Z
     81e:	88 23       	and	r24, r24
     820:	79 f0       	breq	.+30     	; 0x840 <cliLineChange+0x40>
     822:	1f 92       	push	r1
     824:	8f 93       	push	r24
     826:	80 e0       	ldi	r24, 0x00	; 0
     828:	90 e4       	ldi	r25, 0x40	; 64
     82a:	9f 93       	push	r25
     82c:	8f 93       	push	r24
     82e:	88 81       	ld	r24, Y
     830:	8f 93       	push	r24
     832:	0e 94 01 0d 	call	0x1a02	; 0x1a02 <uartPrintf>
     836:	0f 90       	pop	r0
     838:	0f 90       	pop	r0
     83a:	0f 90       	pop	r0
     83c:	0f 90       	pop	r0
     83e:	0f 90       	pop	r0
     840:	fe 01       	movw	r30, r28
     842:	ef 5a       	subi	r30, 0xAF	; 175
     844:	fd 4f       	sbci	r31, 0xFD	; 253
     846:	80 81       	ld	r24, Z
     848:	88 23       	and	r24, r24
     84a:	79 f0       	breq	.+30     	; 0x86a <cliLineChange+0x6a>
     84c:	1f 92       	push	r1
     84e:	8f 93       	push	r24
     850:	86 e0       	ldi	r24, 0x06	; 6
     852:	90 e4       	ldi	r25, 0x40	; 64
     854:	9f 93       	push	r25
     856:	8f 93       	push	r24
     858:	88 81       	ld	r24, Y
     85a:	8f 93       	push	r24
     85c:	0e 94 01 0d 	call	0x1a02	; 0x1a02 <uartPrintf>
     860:	0f 90       	pop	r0
     862:	0f 90       	pop	r0
     864:	0f 90       	pop	r0
     866:	0f 90       	pop	r0
     868:	0f 90       	pop	r0
     86a:	11 30       	cpi	r17, 0x01	; 1
     86c:	f1 f4       	brne	.+60     	; 0x8aa <cliLineChange+0xaa>
     86e:	fe 01       	movw	r30, r28
     870:	e1 5b       	subi	r30, 0xB1	; 177
     872:	fe 4f       	sbci	r31, 0xFE	; 254
     874:	80 81       	ld	r24, Z
     876:	88 23       	and	r24, r24
     878:	21 f0       	breq	.+8      	; 0x882 <cliLineChange+0x82>
     87a:	32 96       	adiw	r30, 0x02	; 2
     87c:	80 81       	ld	r24, Z
     87e:	31 97       	sbiw	r30, 0x01	; 1
     880:	80 83       	st	Z, r24
     882:	fe 01       	movw	r30, r28
     884:	e0 5b       	subi	r30, 0xB0	; 176
     886:	fe 4f       	sbci	r31, 0xFE	; 254
     888:	80 81       	ld	r24, Z
     88a:	de 01       	movw	r26, r28
     88c:	ae 5a       	subi	r26, 0xAE	; 174
     88e:	be 4f       	sbci	r27, 0xFE	; 254
     890:	6c 91       	ld	r22, X
     892:	70 e0       	ldi	r23, 0x00	; 0
     894:	9b 01       	movw	r18, r22
     896:	28 0f       	add	r18, r24
     898:	31 1d       	adc	r19, r1
     89a:	87 fd       	sbrc	r24, 7
     89c:	3a 95       	dec	r19
     89e:	c9 01       	movw	r24, r18
     8a0:	01 97       	sbiw	r24, 0x01	; 1
     8a2:	0e 94 77 0f 	call	0x1eee	; 0x1eee <__divmodhi4>
     8a6:	80 83       	st	Z, r24
     8a8:	10 c0       	rjmp	.+32     	; 0x8ca <cliLineChange+0xca>
     8aa:	fe 01       	movw	r30, r28
     8ac:	e0 5b       	subi	r30, 0xB0	; 176
     8ae:	fe 4f       	sbci	r31, 0xFE	; 254
     8b0:	80 81       	ld	r24, Z
     8b2:	08 2e       	mov	r0, r24
     8b4:	00 0c       	add	r0, r0
     8b6:	99 0b       	sbc	r25, r25
     8b8:	01 96       	adiw	r24, 0x01	; 1
     8ba:	de 01       	movw	r26, r28
     8bc:	ae 5a       	subi	r26, 0xAE	; 174
     8be:	be 4f       	sbci	r27, 0xFE	; 254
     8c0:	6c 91       	ld	r22, X
     8c2:	70 e0       	ldi	r23, 0x00	; 0
     8c4:	0e 94 77 0f 	call	0x1eee	; 0x1eee <__divmodhi4>
     8c8:	80 83       	st	Z, r24
     8ca:	de 01       	movw	r26, r28
     8cc:	a1 5e       	subi	r26, 0xE1	; 225
     8ce:	bd 4f       	sbci	r27, 0xFD	; 253
     8d0:	fe 01       	movw	r30, r28
     8d2:	33 e3       	ldi	r19, 0x33	; 51
     8d4:	83 9f       	mul	r24, r19
     8d6:	e0 0d       	add	r30, r0
     8d8:	f1 1d       	adc	r31, r1
     8da:	11 24       	eor	r1, r1
     8dc:	ed 5a       	subi	r30, 0xAD	; 173
     8de:	fe 4f       	sbci	r31, 0xFE	; 254
     8e0:	83 e3       	ldi	r24, 0x33	; 51
     8e2:	01 90       	ld	r0, Z+
     8e4:	0d 92       	st	X+, r0
     8e6:	8a 95       	dec	r24
     8e8:	e1 f7       	brne	.-8      	; 0x8e2 <cliLineChange+0xe2>
     8ea:	fe 01       	movw	r30, r28
     8ec:	ef 5a       	subi	r30, 0xAF	; 175
     8ee:	fd 4f       	sbci	r31, 0xFD	; 253
     8f0:	80 81       	ld	r24, Z
     8f2:	31 97       	sbiw	r30, 0x01	; 1
     8f4:	80 83       	st	Z, r24
     8f6:	c1 5b       	subi	r28, 0xB1	; 177
     8f8:	de 4f       	sbci	r29, 0xFE	; 254
     8fa:	18 82       	st	Y, r1
     8fc:	df 91       	pop	r29
     8fe:	cf 91       	pop	r28
     900:	1f 91       	pop	r17
     902:	08 95       	ret

00000904 <cliParseArgs>:
     904:	cf 92       	push	r12
     906:	df 92       	push	r13
     908:	ef 92       	push	r14
     90a:	ff 92       	push	r15
     90c:	0f 93       	push	r16
     90e:	1f 93       	push	r17
     910:	cf 93       	push	r28
     912:	df 93       	push	r29
     914:	00 d0       	rcall	.+0      	; 0x916 <cliParseArgs+0x12>
     916:	cd b7       	in	r28, 0x3d	; 61
     918:	de b7       	in	r29, 0x3e	; 62
     91a:	6c 01       	movw	r12, r24
     91c:	fc 01       	movw	r30, r24
     91e:	e3 5f       	subi	r30, 0xF3	; 243
     920:	fe 4f       	sbci	r31, 0xFE	; 254
     922:	10 82       	st	Z, r1
     924:	11 82       	std	Z+1, r1	; 0x01
     926:	7c 01       	movw	r14, r24
     928:	81 ef       	ldi	r24, 0xF1	; 241
     92a:	e8 1a       	sub	r14, r24
     92c:	8e ef       	ldi	r24, 0xFE	; 254
     92e:	f8 0a       	sbc	r15, r24
     930:	f7 01       	movw	r30, r14
     932:	10 82       	st	Z, r1
     934:	11 82       	std	Z+1, r1	; 0x01
     936:	ae 01       	movw	r20, r28
     938:	4f 5f       	subi	r20, 0xFF	; 255
     93a:	5f 4f       	sbci	r21, 0xFF	; 255
     93c:	6c e0       	ldi	r22, 0x0C	; 12
     93e:	70 e4       	ldi	r23, 0x40	; 64
     940:	c6 01       	movw	r24, r12
     942:	81 5e       	subi	r24, 0xE1	; 225
     944:	9d 4f       	sbci	r25, 0xFD	; 253
     946:	0e 94 79 12 	call	0x24f2	; 0x24f2 <strtok_r>
     94a:	20 e0       	ldi	r18, 0x00	; 0
     94c:	30 e0       	ldi	r19, 0x00	; 0
     94e:	14 c0       	rjmp	.+40     	; 0x978 <cliParseArgs+0x74>
     950:	89 01       	movw	r16, r18
     952:	0f 5f       	subi	r16, 0xFF	; 255
     954:	1f 4f       	sbci	r17, 0xFF	; 255
     956:	22 0f       	add	r18, r18
     958:	33 1f       	adc	r19, r19
     95a:	f7 01       	movw	r30, r14
     95c:	e2 0f       	add	r30, r18
     95e:	f3 1f       	adc	r31, r19
     960:	80 83       	st	Z, r24
     962:	91 83       	std	Z+1, r25	; 0x01
     964:	ae 01       	movw	r20, r28
     966:	4f 5f       	subi	r20, 0xFF	; 255
     968:	5f 4f       	sbci	r21, 0xFF	; 255
     96a:	6c e0       	ldi	r22, 0x0C	; 12
     96c:	70 e4       	ldi	r23, 0x40	; 64
     96e:	80 e0       	ldi	r24, 0x00	; 0
     970:	90 e0       	ldi	r25, 0x00	; 0
     972:	0e 94 79 12 	call	0x24f2	; 0x24f2 <strtok_r>
     976:	98 01       	movw	r18, r16
     978:	00 97       	sbiw	r24, 0x00	; 0
     97a:	51 f7       	brne	.-44     	; 0x950 <cliParseArgs+0x4c>
     97c:	f6 01       	movw	r30, r12
     97e:	e3 5f       	subi	r30, 0xF3	; 243
     980:	fe 4f       	sbci	r31, 0xFE	; 254
     982:	20 83       	st	Z, r18
     984:	31 83       	std	Z+1, r19	; 0x01
     986:	23 2b       	or	r18, r19
     988:	11 f4       	brne	.+4      	; 0x98e <cliParseArgs+0x8a>
     98a:	80 e0       	ldi	r24, 0x00	; 0
     98c:	01 c0       	rjmp	.+2      	; 0x990 <cliParseArgs+0x8c>
     98e:	81 e0       	ldi	r24, 0x01	; 1
     990:	0f 90       	pop	r0
     992:	0f 90       	pop	r0
     994:	df 91       	pop	r29
     996:	cf 91       	pop	r28
     998:	1f 91       	pop	r17
     99a:	0f 91       	pop	r16
     99c:	ff 90       	pop	r15
     99e:	ef 90       	pop	r14
     9a0:	df 90       	pop	r13
     9a2:	cf 90       	pop	r12
     9a4:	08 95       	ret

000009a6 <cliOpen>:
     9a6:	0f 93       	push	r16
     9a8:	1f 93       	push	r17
     9aa:	cf 93       	push	r28
     9ac:	df 93       	push	r29
     9ae:	e8 e3       	ldi	r30, 0x38	; 56
     9b0:	f0 e4       	ldi	r31, 0x40	; 64
     9b2:	80 83       	st	Z, r24
     9b4:	95 81       	ldd	r25, Z+5	; 0x05
     9b6:	99 23       	and	r25, r25
     9b8:	69 f0       	breq	.+26     	; 0x9d4 <cliOpen+0x2e>
     9ba:	00 91 39 40 	lds	r16, 0x4039	; 0x804039 <cli_node+0x1>
     9be:	10 91 3a 40 	lds	r17, 0x403A	; 0x80403a <cli_node+0x2>
     9c2:	20 91 3b 40 	lds	r18, 0x403B	; 0x80403b <cli_node+0x3>
     9c6:	30 91 3c 40 	lds	r19, 0x403C	; 0x80403c <cli_node+0x4>
     9ca:	04 17       	cp	r16, r20
     9cc:	15 07       	cpc	r17, r21
     9ce:	26 07       	cpc	r18, r22
     9d0:	37 07       	cpc	r19, r23
     9d2:	49 f0       	breq	.+18     	; 0x9e6 <cliOpen+0x40>
     9d4:	c8 e3       	ldi	r28, 0x38	; 56
     9d6:	d0 e4       	ldi	r29, 0x40	; 64
     9d8:	49 83       	std	Y+1, r20	; 0x01
     9da:	5a 83       	std	Y+2, r21	; 0x02
     9dc:	6b 83       	std	Y+3, r22	; 0x03
     9de:	7c 83       	std	Y+4, r23	; 0x04
     9e0:	0e 94 1a 0c 	call	0x1834	; 0x1834 <uartOpen>
     9e4:	8d 83       	std	Y+5, r24	; 0x05
     9e6:	80 91 3d 40 	lds	r24, 0x403D	; 0x80403d <cli_node+0x5>
     9ea:	df 91       	pop	r29
     9ec:	cf 91       	pop	r28
     9ee:	1f 91       	pop	r17
     9f0:	0f 91       	pop	r16
     9f2:	08 95       	ret

000009f4 <cliPrintf>:
     9f4:	cf 93       	push	r28
     9f6:	df 93       	push	r29
     9f8:	cd b7       	in	r28, 0x3d	; 61
     9fa:	de b7       	in	r29, 0x3e	; 62
     9fc:	9e 01       	movw	r18, r28
     9fe:	2b 5f       	subi	r18, 0xFB	; 251
     a00:	3f 4f       	sbci	r19, 0xFF	; 255
     a02:	f9 01       	movw	r30, r18
     a04:	41 91       	ld	r20, Z+
     a06:	51 91       	ld	r21, Z+
     a08:	9f 01       	movw	r18, r30
     a0a:	60 e0       	ldi	r22, 0x00	; 0
     a0c:	71 e0       	ldi	r23, 0x01	; 1
     a0e:	85 e4       	ldi	r24, 0x45	; 69
     a10:	90 e4       	ldi	r25, 0x40	; 64
     a12:	0e 94 a8 12 	call	0x2550	; 0x2550 <vsnprintf>
     a16:	9c 01       	movw	r18, r24
     a18:	99 0f       	add	r25, r25
     a1a:	44 0b       	sbc	r20, r20
     a1c:	55 0b       	sbc	r21, r21
     a1e:	65 e4       	ldi	r22, 0x45	; 69
     a20:	70 e4       	ldi	r23, 0x40	; 64
     a22:	80 91 38 40 	lds	r24, 0x4038	; 0x804038 <cli_node>
     a26:	0e 94 7b 0c 	call	0x18f6	; 0x18f6 <uartWrite>
     a2a:	df 91       	pop	r29
     a2c:	cf 91       	pop	r28
     a2e:	08 95       	ret

00000a30 <cliPrintf_P>:
     a30:	cf 93       	push	r28
     a32:	df 93       	push	r29
     a34:	cd b7       	in	r28, 0x3d	; 61
     a36:	de b7       	in	r29, 0x3e	; 62
     a38:	9e 01       	movw	r18, r28
     a3a:	2b 5f       	subi	r18, 0xFB	; 251
     a3c:	3f 4f       	sbci	r19, 0xFF	; 255
     a3e:	f9 01       	movw	r30, r18
     a40:	41 91       	ld	r20, Z+
     a42:	51 91       	ld	r21, Z+
     a44:	9f 01       	movw	r18, r30
     a46:	60 e0       	ldi	r22, 0x00	; 0
     a48:	71 e0       	ldi	r23, 0x01	; 1
     a4a:	85 e4       	ldi	r24, 0x45	; 69
     a4c:	90 e4       	ldi	r25, 0x40	; 64
     a4e:	0e 94 db 12 	call	0x25b6	; 0x25b6 <vsnprintf_P>
     a52:	9c 01       	movw	r18, r24
     a54:	99 0f       	add	r25, r25
     a56:	44 0b       	sbc	r20, r20
     a58:	55 0b       	sbc	r21, r21
     a5a:	65 e4       	ldi	r22, 0x45	; 69
     a5c:	70 e4       	ldi	r23, 0x40	; 64
     a5e:	80 91 38 40 	lds	r24, 0x4038	; 0x804038 <cli_node>
     a62:	0e 94 7b 0c 	call	0x18f6	; 0x18f6 <uartWrite>
     a66:	df 91       	pop	r29
     a68:	cf 91       	pop	r28
     a6a:	08 95       	ret

00000a6c <cliRunCmd>:
     a6c:	0f 93       	push	r16
     a6e:	1f 93       	push	r17
     a70:	cf 93       	push	r28
     a72:	df 93       	push	r29
     a74:	8c 01       	movw	r16, r24
     a76:	0e 94 82 04 	call	0x904	; 0x904 <cliParseArgs>
     a7a:	88 23       	and	r24, r24
     a7c:	09 f4       	brne	.+2      	; 0xa80 <cliRunCmd+0x14>
     a7e:	50 c0       	rjmp	.+160    	; 0xb20 <cliRunCmd+0xb4>
     a80:	8d ed       	ldi	r24, 0xDD	; 221
     a82:	91 e0       	ldi	r25, 0x01	; 1
     a84:	9f 93       	push	r25
     a86:	8f 93       	push	r24
     a88:	0e 94 18 05 	call	0xa30	; 0xa30 <cliPrintf_P>
     a8c:	f8 01       	movw	r30, r16
     a8e:	e1 5f       	subi	r30, 0xF1	; 241
     a90:	fe 4f       	sbci	r31, 0xFE	; 254
     a92:	80 81       	ld	r24, Z
     a94:	91 81       	ldd	r25, Z+1	; 0x01
     a96:	0e 94 75 03 	call	0x6ea	; 0x6ea <cliToUpper>
     a9a:	0f 90       	pop	r0
     a9c:	0f 90       	pop	r0
     a9e:	c0 e0       	ldi	r28, 0x00	; 0
     aa0:	d0 e0       	ldi	r29, 0x00	; 0
     aa2:	36 c0       	rjmp	.+108    	; 0xb10 <cliRunCmd+0xa4>
     aa4:	be 01       	movw	r22, r28
     aa6:	62 95       	swap	r22
     aa8:	72 95       	swap	r23
     aaa:	70 7f       	andi	r23, 0xF0	; 240
     aac:	76 27       	eor	r23, r22
     aae:	60 7f       	andi	r22, 0xF0	; 240
     ab0:	76 27       	eor	r23, r22
     ab2:	6c 5a       	subi	r22, 0xAC	; 172
     ab4:	7d 4f       	sbci	r23, 0xFD	; 253
     ab6:	60 0f       	add	r22, r16
     ab8:	71 1f       	adc	r23, r17
     aba:	f8 01       	movw	r30, r16
     abc:	e1 5f       	subi	r30, 0xF1	; 241
     abe:	fe 4f       	sbci	r31, 0xFE	; 254
     ac0:	80 81       	ld	r24, Z
     ac2:	91 81       	ldd	r25, Z+1	; 0x01
     ac4:	0e 94 69 12 	call	0x24d2	; 0x24d2 <strcmp>
     ac8:	89 2b       	or	r24, r25
     aca:	09 f5       	brne	.+66     	; 0xb0e <cliRunCmd+0xa2>
     acc:	f8 01       	movw	r30, r16
     ace:	e3 5f       	subi	r30, 0xF3	; 243
     ad0:	fe 4f       	sbci	r31, 0xFE	; 254
     ad2:	20 81       	ld	r18, Z
     ad4:	31 81       	ldd	r19, Z+1	; 0x01
     ad6:	21 50       	subi	r18, 0x01	; 1
     ad8:	31 09       	sbc	r19, r1
     ada:	c8 01       	movw	r24, r16
     adc:	8c 5a       	subi	r24, 0xAC	; 172
     ade:	9c 4f       	sbci	r25, 0xFC	; 252
     ae0:	fc 01       	movw	r30, r24
     ae2:	20 83       	st	Z, r18
     ae4:	31 83       	std	Z+1, r19	; 0x01
     ae6:	98 01       	movw	r18, r16
     ae8:	2f 5e       	subi	r18, 0xEF	; 239
     aea:	3e 4f       	sbci	r19, 0xFE	; 254
     aec:	32 96       	adiw	r30, 0x02	; 2
     aee:	20 83       	st	Z, r18
     af0:	31 83       	std	Z+1, r19	; 0x01
     af2:	c2 95       	swap	r28
     af4:	d2 95       	swap	r29
     af6:	d0 7f       	andi	r29, 0xF0	; 240
     af8:	dc 27       	eor	r29, r28
     afa:	c0 7f       	andi	r28, 0xF0	; 240
     afc:	dc 27       	eor	r29, r28
     afe:	c0 0f       	add	r28, r16
     b00:	d1 1f       	adc	r29, r17
     b02:	ce 59       	subi	r28, 0x9E	; 158
     b04:	dd 4f       	sbci	r29, 0xFD	; 253
     b06:	e8 81       	ld	r30, Y
     b08:	f9 81       	ldd	r31, Y+1	; 0x01
     b0a:	09 95       	icall
     b0c:	09 c0       	rjmp	.+18     	; 0xb20 <cliRunCmd+0xb4>
     b0e:	21 96       	adiw	r28, 0x01	; 1
     b10:	f8 01       	movw	r30, r16
     b12:	ee 5a       	subi	r30, 0xAE	; 174
     b14:	fd 4f       	sbci	r31, 0xFD	; 253
     b16:	80 81       	ld	r24, Z
     b18:	91 81       	ldd	r25, Z+1	; 0x01
     b1a:	c8 17       	cp	r28, r24
     b1c:	d9 07       	cpc	r29, r25
     b1e:	10 f2       	brcs	.-124    	; 0xaa4 <cliRunCmd+0x38>
     b20:	80 e0       	ldi	r24, 0x00	; 0
     b22:	df 91       	pop	r29
     b24:	cf 91       	pop	r28
     b26:	1f 91       	pop	r17
     b28:	0f 91       	pop	r16
     b2a:	08 95       	ret

00000b2c <cliShowPrompt>:
     b2c:	8a ed       	ldi	r24, 0xDA	; 218
     b2e:	91 e0       	ldi	r25, 0x01	; 1
     b30:	9f 93       	push	r25
     b32:	8f 93       	push	r24
     b34:	0e 94 18 05 	call	0xa30	; 0xa30 <cliPrintf_P>
     b38:	84 ed       	ldi	r24, 0xD4	; 212
     b3a:	91 e0       	ldi	r25, 0x01	; 1
     b3c:	9f 93       	push	r25
     b3e:	8f 93       	push	r24
     b40:	0e 94 18 05 	call	0xa30	; 0xa30 <cliPrintf_P>
     b44:	0f 90       	pop	r0
     b46:	0f 90       	pop	r0
     b48:	0f 90       	pop	r0
     b4a:	0f 90       	pop	r0
     b4c:	08 95       	ret

00000b4e <cliUpdate>:
     b4e:	ef 92       	push	r14
     b50:	ff 92       	push	r15
     b52:	0f 93       	push	r16
     b54:	1f 93       	push	r17
     b56:	cf 93       	push	r28
     b58:	df 93       	push	r29
     b5a:	cd b7       	in	r28, 0x3d	; 61
     b5c:	de b7       	in	r29, 0x3e	; 62
     b5e:	29 97       	sbiw	r28, 0x09	; 9
     b60:	cd bf       	out	0x3d, r28	; 61
     b62:	de bf       	out	0x3e, r29	; 62
     b64:	8c 01       	movw	r16, r24
     b66:	69 87       	std	Y+9, r22	; 0x09
     b68:	dc 01       	movw	r26, r24
     b6a:	1c 96       	adiw	r26, 0x0c	; 12
     b6c:	8c 91       	ld	r24, X
     b6e:	81 11       	cpse	r24, r1
     b70:	16 c1       	rjmp	.+556    	; 0xd9e <cliUpdate+0x250>
     b72:	6d 30       	cpi	r22, 0x0D	; 13
     b74:	51 f0       	breq	.+20     	; 0xb8a <cliUpdate+0x3c>
     b76:	20 f4       	brcc	.+8      	; 0xb80 <cliUpdate+0x32>
     b78:	68 30       	cpi	r22, 0x08	; 8
     b7a:	09 f4       	brne	.+2      	; 0xb7e <cliUpdate+0x30>
     b7c:	56 c0       	rjmp	.+172    	; 0xc2a <cliUpdate+0xdc>
     b7e:	a2 c0       	rjmp	.+324    	; 0xcc4 <cliUpdate+0x176>
     b80:	6b 31       	cpi	r22, 0x1B	; 27
     b82:	c9 f0       	breq	.+50     	; 0xbb6 <cliUpdate+0x68>
     b84:	6f 37       	cpi	r22, 0x7F	; 127
     b86:	d9 f0       	breq	.+54     	; 0xbbe <cliUpdate+0x70>
     b88:	9d c0       	rjmp	.+314    	; 0xcc4 <cliUpdate+0x176>
     b8a:	f8 01       	movw	r30, r16
     b8c:	e1 5e       	subi	r30, 0xE1	; 225
     b8e:	fd 4f       	sbci	r31, 0xFD	; 253
     b90:	82 a9       	ldd	r24, Z+50	; 0x32
     b92:	88 23       	and	r24, r24
     b94:	31 f0       	breq	.+12     	; 0xba2 <cliUpdate+0x54>
     b96:	c8 01       	movw	r24, r16
     b98:	0e 94 3f 03 	call	0x67e	; 0x67e <cliLineAdd>
     b9c:	c8 01       	movw	r24, r16
     b9e:	0e 94 36 05 	call	0xa6c	; 0xa6c <cliRunCmd>
     ba2:	f8 01       	movw	r30, r16
     ba4:	e1 5e       	subi	r30, 0xE1	; 225
     ba6:	fd 4f       	sbci	r31, 0xFD	; 253
     ba8:	12 aa       	std	Z+50, r1	; 0x32
     baa:	11 aa       	std	Z+49, r1	; 0x31
     bac:	10 82       	st	Z, r1
     bae:	c8 01       	movw	r24, r16
     bb0:	0e 94 96 05 	call	0xb2c	; 0xb2c <cliShowPrompt>
     bb4:	f4 c0       	rjmp	.+488    	; 0xd9e <cliUpdate+0x250>
     bb6:	81 e0       	ldi	r24, 0x01	; 1
     bb8:	f8 01       	movw	r30, r16
     bba:	84 87       	std	Z+12, r24	; 0x0c
     bbc:	f0 c0       	rjmp	.+480    	; 0xd9e <cliUpdate+0x250>
     bbe:	f8 01       	movw	r30, r16
     bc0:	e1 5e       	subi	r30, 0xE1	; 225
     bc2:	fd 4f       	sbci	r31, 0xFD	; 253
     bc4:	61 a9       	ldd	r22, Z+49	; 0x31
     bc6:	f2 a8       	ldd	r15, Z+50	; 0x32
     bc8:	6f 15       	cp	r22, r15
     bca:	08 f0       	brcs	.+2      	; 0xbce <cliUpdate+0x80>
     bcc:	e8 c0       	rjmp	.+464    	; 0xd9e <cliUpdate+0x250>
     bce:	7f 2d       	mov	r23, r15
     bd0:	76 1b       	sub	r23, r22
     bd2:	21 e0       	ldi	r18, 0x01	; 1
     bd4:	30 e0       	ldi	r19, 0x00	; 0
     bd6:	12 c0       	rjmp	.+36     	; 0xbfc <cliUpdate+0xae>
     bd8:	c9 01       	movw	r24, r18
     bda:	86 0f       	add	r24, r22
     bdc:	91 1d       	adc	r25, r1
     bde:	ac 01       	movw	r20, r24
     be0:	41 50       	subi	r20, 0x01	; 1
     be2:	51 09       	sbc	r21, r1
     be4:	f8 01       	movw	r30, r16
     be6:	e1 5e       	subi	r30, 0xE1	; 225
     be8:	fd 4f       	sbci	r31, 0xFD	; 253
     bea:	df 01       	movw	r26, r30
     bec:	a8 0f       	add	r26, r24
     bee:	b9 1f       	adc	r27, r25
     bf0:	8c 91       	ld	r24, X
     bf2:	e4 0f       	add	r30, r20
     bf4:	f5 1f       	adc	r31, r21
     bf6:	80 83       	st	Z, r24
     bf8:	2f 5f       	subi	r18, 0xFF	; 255
     bfa:	3f 4f       	sbci	r19, 0xFF	; 255
     bfc:	87 2f       	mov	r24, r23
     bfe:	90 e0       	ldi	r25, 0x00	; 0
     c00:	28 17       	cp	r18, r24
     c02:	39 07       	cpc	r19, r25
     c04:	4c f3       	brlt	.-46     	; 0xbd8 <cliUpdate+0x8a>
     c06:	af ef       	ldi	r26, 0xFF	; 255
     c08:	af 0d       	add	r26, r15
     c0a:	f8 01       	movw	r30, r16
     c0c:	e1 5e       	subi	r30, 0xE1	; 225
     c0e:	fd 4f       	sbci	r31, 0xFD	; 253
     c10:	a2 ab       	std	Z+50, r26	; 0x32
     c12:	ea 0f       	add	r30, r26
     c14:	f1 1d       	adc	r31, r1
     c16:	10 82       	st	Z, r1
     c18:	83 ef       	ldi	r24, 0xF3	; 243
     c1a:	91 e0       	ldi	r25, 0x01	; 1
     c1c:	9f 93       	push	r25
     c1e:	8f 93       	push	r24
     c20:	0e 94 18 05 	call	0xa30	; 0xa30 <cliPrintf_P>
     c24:	0f 90       	pop	r0
     c26:	0f 90       	pop	r0
     c28:	ba c0       	rjmp	.+372    	; 0xd9e <cliUpdate+0x250>
     c2a:	f8 01       	movw	r30, r16
     c2c:	e1 5e       	subi	r30, 0xE1	; 225
     c2e:	fd 4f       	sbci	r31, 0xFD	; 253
     c30:	82 a9       	ldd	r24, Z+50	; 0x32
     c32:	88 23       	and	r24, r24
     c34:	a9 f1       	breq	.+106    	; 0xca0 <cliUpdate+0x152>
     c36:	61 a9       	ldd	r22, Z+49	; 0x31
     c38:	66 23       	and	r22, r22
     c3a:	91 f1       	breq	.+100    	; 0xca0 <cliUpdate+0x152>
     c3c:	86 13       	cpse	r24, r22
     c3e:	05 c0       	rjmp	.+10     	; 0xc4a <cliUpdate+0xfc>
     c40:	81 50       	subi	r24, 0x01	; 1
     c42:	82 ab       	std	Z+50, r24	; 0x32
     c44:	e8 0f       	add	r30, r24
     c46:	f1 1d       	adc	r31, r1
     c48:	10 82       	st	Z, r1
     c4a:	f8 01       	movw	r30, r16
     c4c:	e1 5e       	subi	r30, 0xE1	; 225
     c4e:	fd 4f       	sbci	r31, 0xFD	; 253
     c50:	f2 a8       	ldd	r15, Z+50	; 0x32
     c52:	6f 15       	cp	r22, r15
     c54:	28 f5       	brcc	.+74     	; 0xca0 <cliUpdate+0x152>
     c56:	7f 2d       	mov	r23, r15
     c58:	76 1b       	sub	r23, r22
     c5a:	20 e0       	ldi	r18, 0x00	; 0
     c5c:	30 e0       	ldi	r19, 0x00	; 0
     c5e:	12 c0       	rjmp	.+36     	; 0xc84 <cliUpdate+0x136>
     c60:	c9 01       	movw	r24, r18
     c62:	86 0f       	add	r24, r22
     c64:	91 1d       	adc	r25, r1
     c66:	ac 01       	movw	r20, r24
     c68:	41 50       	subi	r20, 0x01	; 1
     c6a:	51 09       	sbc	r21, r1
     c6c:	f8 01       	movw	r30, r16
     c6e:	e1 5e       	subi	r30, 0xE1	; 225
     c70:	fd 4f       	sbci	r31, 0xFD	; 253
     c72:	df 01       	movw	r26, r30
     c74:	a8 0f       	add	r26, r24
     c76:	b9 1f       	adc	r27, r25
     c78:	8c 91       	ld	r24, X
     c7a:	e4 0f       	add	r30, r20
     c7c:	f5 1f       	adc	r31, r21
     c7e:	80 83       	st	Z, r24
     c80:	2f 5f       	subi	r18, 0xFF	; 255
     c82:	3f 4f       	sbci	r19, 0xFF	; 255
     c84:	87 2f       	mov	r24, r23
     c86:	90 e0       	ldi	r25, 0x00	; 0
     c88:	28 17       	cp	r18, r24
     c8a:	39 07       	cpc	r19, r25
     c8c:	4c f3       	brlt	.-46     	; 0xc60 <cliUpdate+0x112>
     c8e:	af ef       	ldi	r26, 0xFF	; 255
     c90:	af 0d       	add	r26, r15
     c92:	f8 01       	movw	r30, r16
     c94:	e1 5e       	subi	r30, 0xE1	; 225
     c96:	fd 4f       	sbci	r31, 0xFD	; 253
     c98:	a2 ab       	std	Z+50, r26	; 0x32
     c9a:	ea 0f       	add	r30, r26
     c9c:	f1 1d       	adc	r31, r1
     c9e:	10 82       	st	Z, r1
     ca0:	f8 01       	movw	r30, r16
     ca2:	e1 5e       	subi	r30, 0xE1	; 225
     ca4:	fd 4f       	sbci	r31, 0xFD	; 253
     ca6:	81 a9       	ldd	r24, Z+49	; 0x31
     ca8:	88 23       	and	r24, r24
     caa:	09 f4       	brne	.+2      	; 0xcae <cliUpdate+0x160>
     cac:	78 c0       	rjmp	.+240    	; 0xd9e <cliUpdate+0x250>
     cae:	81 50       	subi	r24, 0x01	; 1
     cb0:	81 ab       	std	Z+49, r24	; 0x31
     cb2:	8b ee       	ldi	r24, 0xEB	; 235
     cb4:	91 e0       	ldi	r25, 0x01	; 1
     cb6:	9f 93       	push	r25
     cb8:	8f 93       	push	r24
     cba:	0e 94 18 05 	call	0xa30	; 0xa30 <cliPrintf_P>
     cbe:	0f 90       	pop	r0
     cc0:	0f 90       	pop	r0
     cc2:	6d c0       	rjmp	.+218    	; 0xd9e <cliUpdate+0x250>
     cc4:	f8 01       	movw	r30, r16
     cc6:	e1 5e       	subi	r30, 0xE1	; 225
     cc8:	fd 4f       	sbci	r31, 0xFD	; 253
     cca:	42 a9       	ldd	r20, Z+50	; 0x32
     ccc:	24 2f       	mov	r18, r20
     cce:	30 e0       	ldi	r19, 0x00	; 0
     cd0:	2f 5f       	subi	r18, 0xFF	; 255
     cd2:	3f 4f       	sbci	r19, 0xFF	; 255
     cd4:	80 a9       	ldd	r24, Z+48	; 0x30
     cd6:	90 e0       	ldi	r25, 0x00	; 0
     cd8:	28 17       	cp	r18, r24
     cda:	39 07       	cpc	r19, r25
     cdc:	0c f0       	brlt	.+2      	; 0xce0 <cliUpdate+0x192>
     cde:	5f c0       	rjmp	.+190    	; 0xd9e <cliUpdate+0x250>
     ce0:	81 a9       	ldd	r24, Z+49	; 0x31
     ce2:	48 13       	cpse	r20, r24
     ce4:	1c c0       	rjmp	.+56     	; 0xd1e <cliUpdate+0x1d0>
     ce6:	21 e0       	ldi	r18, 0x01	; 1
     ce8:	30 e0       	ldi	r19, 0x00	; 0
     cea:	40 e0       	ldi	r20, 0x00	; 0
     cec:	50 e0       	ldi	r21, 0x00	; 0
     cee:	be 01       	movw	r22, r28
     cf0:	67 5f       	subi	r22, 0xF7	; 247
     cf2:	7f 4f       	sbci	r23, 0xFF	; 255
     cf4:	d8 01       	movw	r26, r16
     cf6:	8c 91       	ld	r24, X
     cf8:	0e 94 7b 0c 	call	0x18f6	; 0x18f6 <uartWrite>
     cfc:	f8 01       	movw	r30, r16
     cfe:	e1 5e       	subi	r30, 0xE1	; 225
     d00:	fd 4f       	sbci	r31, 0xFD	; 253
     d02:	91 a9       	ldd	r25, Z+49	; 0x31
     d04:	df 01       	movw	r26, r30
     d06:	a9 0f       	add	r26, r25
     d08:	b1 1d       	adc	r27, r1
     d0a:	89 85       	ldd	r24, Y+9	; 0x09
     d0c:	8c 93       	st	X, r24
     d0e:	82 a9       	ldd	r24, Z+50	; 0x32
     d10:	8f 5f       	subi	r24, 0xFF	; 255
     d12:	82 ab       	std	Z+50, r24	; 0x32
     d14:	9f 5f       	subi	r25, 0xFF	; 255
     d16:	91 ab       	std	Z+49, r25	; 0x31
     d18:	e8 0f       	add	r30, r24
     d1a:	f1 1d       	adc	r31, r1
     d1c:	10 82       	st	Z, r1
     d1e:	f8 01       	movw	r30, r16
     d20:	e1 5e       	subi	r30, 0xE1	; 225
     d22:	fd 4f       	sbci	r31, 0xFD	; 253
     d24:	f1 a8       	ldd	r15, Z+49	; 0x31
     d26:	72 a9       	ldd	r23, Z+50	; 0x32
     d28:	f7 16       	cp	r15, r23
     d2a:	c8 f5       	brcc	.+114    	; 0xd9e <cliUpdate+0x250>
     d2c:	a7 2f       	mov	r26, r23
     d2e:	af 19       	sub	r26, r15
     d30:	20 e0       	ldi	r18, 0x00	; 0
     d32:	30 e0       	ldi	r19, 0x00	; 0
     d34:	12 c0       	rjmp	.+36     	; 0xd5a <cliUpdate+0x20c>
     d36:	87 2f       	mov	r24, r23
     d38:	90 e0       	ldi	r25, 0x00	; 0
     d3a:	82 1b       	sub	r24, r18
     d3c:	93 0b       	sbc	r25, r19
     d3e:	fc 01       	movw	r30, r24
     d40:	31 97       	sbiw	r30, 0x01	; 1
     d42:	a8 01       	movw	r20, r16
     d44:	41 5e       	subi	r20, 0xE1	; 225
     d46:	5d 4f       	sbci	r21, 0xFD	; 253
     d48:	e4 0f       	add	r30, r20
     d4a:	f5 1f       	adc	r31, r21
     d4c:	60 81       	ld	r22, Z
     d4e:	fa 01       	movw	r30, r20
     d50:	e8 0f       	add	r30, r24
     d52:	f9 1f       	adc	r31, r25
     d54:	60 83       	st	Z, r22
     d56:	2f 5f       	subi	r18, 0xFF	; 255
     d58:	3f 4f       	sbci	r19, 0xFF	; 255
     d5a:	8a 2f       	mov	r24, r26
     d5c:	90 e0       	ldi	r25, 0x00	; 0
     d5e:	28 17       	cp	r18, r24
     d60:	39 07       	cpc	r19, r25
     d62:	4c f3       	brlt	.-46     	; 0xd36 <cliUpdate+0x1e8>
     d64:	89 85       	ldd	r24, Y+9	; 0x09
     d66:	f8 01       	movw	r30, r16
     d68:	e1 5e       	subi	r30, 0xE1	; 225
     d6a:	fd 4f       	sbci	r31, 0xFD	; 253
     d6c:	9f 01       	movw	r18, r30
     d6e:	2f 0d       	add	r18, r15
     d70:	31 1d       	adc	r19, r1
     d72:	d9 01       	movw	r26, r18
     d74:	8c 93       	st	X, r24
     d76:	7f 5f       	subi	r23, 0xFF	; 255
     d78:	72 ab       	std	Z+50, r23	; 0x32
     d7a:	b1 e0       	ldi	r27, 0x01	; 1
     d7c:	bf 0d       	add	r27, r15
     d7e:	b1 ab       	std	Z+49, r27	; 0x31
     d80:	e7 0f       	add	r30, r23
     d82:	f1 1d       	adc	r31, r1
     d84:	10 82       	st	Z, r1
     d86:	1f 92       	push	r1
     d88:	8f 93       	push	r24
     d8a:	80 ee       	ldi	r24, 0xE0	; 224
     d8c:	91 e0       	ldi	r25, 0x01	; 1
     d8e:	9f 93       	push	r25
     d90:	8f 93       	push	r24
     d92:	0e 94 18 05 	call	0xa30	; 0xa30 <cliPrintf_P>
     d96:	0f 90       	pop	r0
     d98:	0f 90       	pop	r0
     d9a:	0f 90       	pop	r0
     d9c:	0f 90       	pop	r0
     d9e:	f8 01       	movw	r30, r16
     da0:	84 85       	ldd	r24, Z+12	; 0x0c
     da2:	82 30       	cpi	r24, 0x02	; 2
     da4:	69 f0       	breq	.+26     	; 0xdc0 <cliUpdate+0x272>
     da6:	18 f4       	brcc	.+6      	; 0xdae <cliUpdate+0x260>
     da8:	81 30       	cpi	r24, 0x01	; 1
     daa:	39 f0       	breq	.+14     	; 0xdba <cliUpdate+0x26c>
     dac:	ce c0       	rjmp	.+412    	; 0xf4a <cliUpdate+0x3fc>
     dae:	83 30       	cpi	r24, 0x03	; 3
     db0:	59 f0       	breq	.+22     	; 0xdc8 <cliUpdate+0x27a>
     db2:	84 30       	cpi	r24, 0x04	; 4
     db4:	09 f4       	brne	.+2      	; 0xdb8 <cliUpdate+0x26a>
     db6:	c8 c0       	rjmp	.+400    	; 0xf48 <cliUpdate+0x3fa>
     db8:	c8 c0       	rjmp	.+400    	; 0xf4a <cliUpdate+0x3fc>
     dba:	82 e0       	ldi	r24, 0x02	; 2
     dbc:	84 87       	std	Z+12, r24	; 0x0c
     dbe:	c5 c0       	rjmp	.+394    	; 0xf4a <cliUpdate+0x3fc>
     dc0:	83 e0       	ldi	r24, 0x03	; 3
     dc2:	f8 01       	movw	r30, r16
     dc4:	84 87       	std	Z+12, r24	; 0x0c
     dc6:	c1 c0       	rjmp	.+386    	; 0xf4a <cliUpdate+0x3fc>
     dc8:	14 86       	std	Z+12, r1	; 0x0c
     dca:	89 85       	ldd	r24, Y+9	; 0x09
     dcc:	84 34       	cpi	r24, 0x44	; 68
     dce:	c1 f4       	brne	.+48     	; 0xe00 <cliUpdate+0x2b2>
     dd0:	f8 01       	movw	r30, r16
     dd2:	e1 5e       	subi	r30, 0xE1	; 225
     dd4:	fd 4f       	sbci	r31, 0xFD	; 253
     dd6:	91 a9       	ldd	r25, Z+49	; 0x31
     dd8:	99 23       	and	r25, r25
     dda:	91 f0       	breq	.+36     	; 0xe00 <cliUpdate+0x2b2>
     ddc:	91 50       	subi	r25, 0x01	; 1
     dde:	91 ab       	std	Z+49, r25	; 0x31
     de0:	9b e1       	ldi	r25, 0x1B	; 27
     de2:	99 83       	std	Y+1, r25	; 0x01
     de4:	9b e5       	ldi	r25, 0x5B	; 91
     de6:	9a 83       	std	Y+2, r25	; 0x02
     de8:	8b 83       	std	Y+3, r24	; 0x03
     dea:	23 e0       	ldi	r18, 0x03	; 3
     dec:	30 e0       	ldi	r19, 0x00	; 0
     dee:	40 e0       	ldi	r20, 0x00	; 0
     df0:	50 e0       	ldi	r21, 0x00	; 0
     df2:	be 01       	movw	r22, r28
     df4:	6f 5f       	subi	r22, 0xFF	; 255
     df6:	7f 4f       	sbci	r23, 0xFF	; 255
     df8:	f8 01       	movw	r30, r16
     dfa:	80 81       	ld	r24, Z
     dfc:	0e 94 7b 0c 	call	0x18f6	; 0x18f6 <uartWrite>
     e00:	89 85       	ldd	r24, Y+9	; 0x09
     e02:	83 34       	cpi	r24, 0x43	; 67
     e04:	c9 f4       	brne	.+50     	; 0xe38 <cliUpdate+0x2ea>
     e06:	f8 01       	movw	r30, r16
     e08:	e1 5e       	subi	r30, 0xE1	; 225
     e0a:	fd 4f       	sbci	r31, 0xFD	; 253
     e0c:	91 a9       	ldd	r25, Z+49	; 0x31
     e0e:	22 a9       	ldd	r18, Z+50	; 0x32
     e10:	92 17       	cp	r25, r18
     e12:	90 f4       	brcc	.+36     	; 0xe38 <cliUpdate+0x2ea>
     e14:	9f 5f       	subi	r25, 0xFF	; 255
     e16:	91 ab       	std	Z+49, r25	; 0x31
     e18:	9b e1       	ldi	r25, 0x1B	; 27
     e1a:	99 83       	std	Y+1, r25	; 0x01
     e1c:	9b e5       	ldi	r25, 0x5B	; 91
     e1e:	9a 83       	std	Y+2, r25	; 0x02
     e20:	8b 83       	std	Y+3, r24	; 0x03
     e22:	23 e0       	ldi	r18, 0x03	; 3
     e24:	30 e0       	ldi	r19, 0x00	; 0
     e26:	40 e0       	ldi	r20, 0x00	; 0
     e28:	50 e0       	ldi	r21, 0x00	; 0
     e2a:	be 01       	movw	r22, r28
     e2c:	6f 5f       	subi	r22, 0xFF	; 255
     e2e:	7f 4f       	sbci	r23, 0xFF	; 255
     e30:	d8 01       	movw	r26, r16
     e32:	8c 91       	ld	r24, X
     e34:	0e 94 7b 0c 	call	0x18f6	; 0x18f6 <uartWrite>
     e38:	89 85       	ldd	r24, Y+9	; 0x09
     e3a:	81 34       	cpi	r24, 0x41	; 65
     e3c:	89 f4       	brne	.+34     	; 0xe60 <cliUpdate+0x312>
     e3e:	61 e0       	ldi	r22, 0x01	; 1
     e40:	c8 01       	movw	r24, r16
     e42:	0e 94 00 04 	call	0x800	; 0x800 <cliLineChange>
     e46:	c8 01       	movw	r24, r16
     e48:	81 5e       	subi	r24, 0xE1	; 225
     e4a:	9d 4f       	sbci	r25, 0xFD	; 253
     e4c:	9f 93       	push	r25
     e4e:	8f 93       	push	r24
     e50:	f8 01       	movw	r30, r16
     e52:	80 81       	ld	r24, Z
     e54:	8f 93       	push	r24
     e56:	0e 94 01 0d 	call	0x1a02	; 0x1a02 <uartPrintf>
     e5a:	0f 90       	pop	r0
     e5c:	0f 90       	pop	r0
     e5e:	0f 90       	pop	r0
     e60:	89 85       	ldd	r24, Y+9	; 0x09
     e62:	82 34       	cpi	r24, 0x42	; 66
     e64:	89 f4       	brne	.+34     	; 0xe88 <cliUpdate+0x33a>
     e66:	60 e0       	ldi	r22, 0x00	; 0
     e68:	c8 01       	movw	r24, r16
     e6a:	0e 94 00 04 	call	0x800	; 0x800 <cliLineChange>
     e6e:	c8 01       	movw	r24, r16
     e70:	81 5e       	subi	r24, 0xE1	; 225
     e72:	9d 4f       	sbci	r25, 0xFD	; 253
     e74:	9f 93       	push	r25
     e76:	8f 93       	push	r24
     e78:	d8 01       	movw	r26, r16
     e7a:	8c 91       	ld	r24, X
     e7c:	8f 93       	push	r24
     e7e:	0e 94 01 0d 	call	0x1a02	; 0x1a02 <uartPrintf>
     e82:	0f 90       	pop	r0
     e84:	0f 90       	pop	r0
     e86:	0f 90       	pop	r0
     e88:	89 85       	ldd	r24, Y+9	; 0x09
     e8a:	81 33       	cpi	r24, 0x31	; 49
     e8c:	e9 f4       	brne	.+58     	; 0xec8 <cliUpdate+0x37a>
     e8e:	78 01       	movw	r14, r16
     e90:	b1 ee       	ldi	r27, 0xE1	; 225
     e92:	eb 1a       	sub	r14, r27
     e94:	bd ef       	ldi	r27, 0xFD	; 253
     e96:	fb 0a       	sbc	r15, r27
     e98:	f7 01       	movw	r30, r14
     e9a:	81 a9       	ldd	r24, Z+49	; 0x31
     e9c:	1f 92       	push	r1
     e9e:	8f 93       	push	r24
     ea0:	80 e0       	ldi	r24, 0x00	; 0
     ea2:	90 e4       	ldi	r25, 0x40	; 64
     ea4:	9f 93       	push	r25
     ea6:	8f 93       	push	r24
     ea8:	d8 01       	movw	r26, r16
     eaa:	8c 91       	ld	r24, X
     eac:	8f 93       	push	r24
     eae:	0e 94 01 0d 	call	0x1a02	; 0x1a02 <uartPrintf>
     eb2:	f7 01       	movw	r30, r14
     eb4:	11 aa       	std	Z+49, r1	; 0x31
     eb6:	84 e0       	ldi	r24, 0x04	; 4
     eb8:	d8 01       	movw	r26, r16
     eba:	1c 96       	adiw	r26, 0x0c	; 12
     ebc:	8c 93       	st	X, r24
     ebe:	0f 90       	pop	r0
     ec0:	0f 90       	pop	r0
     ec2:	0f 90       	pop	r0
     ec4:	0f 90       	pop	r0
     ec6:	0f 90       	pop	r0
     ec8:	89 85       	ldd	r24, Y+9	; 0x09
     eca:	84 33       	cpi	r24, 0x34	; 52
     ecc:	f1 f5       	brne	.+124    	; 0xf4a <cliUpdate+0x3fc>
     ece:	f8 01       	movw	r30, r16
     ed0:	e1 5e       	subi	r30, 0xE1	; 225
     ed2:	fd 4f       	sbci	r31, 0xFD	; 253
     ed4:	21 a9       	ldd	r18, Z+49	; 0x31
     ed6:	82 a9       	ldd	r24, Z+50	; 0x32
     ed8:	28 17       	cp	r18, r24
     eda:	98 f4       	brcc	.+38     	; 0xf02 <cliUpdate+0x3b4>
     edc:	90 e0       	ldi	r25, 0x00	; 0
     ede:	82 1b       	sub	r24, r18
     ee0:	91 09       	sbc	r25, r1
     ee2:	9f 93       	push	r25
     ee4:	8f 93       	push	r24
     ee6:	83 e1       	ldi	r24, 0x13	; 19
     ee8:	90 e4       	ldi	r25, 0x40	; 64
     eea:	9f 93       	push	r25
     eec:	8f 93       	push	r24
     eee:	f8 01       	movw	r30, r16
     ef0:	80 81       	ld	r24, Z
     ef2:	8f 93       	push	r24
     ef4:	0e 94 01 0d 	call	0x1a02	; 0x1a02 <uartPrintf>
     ef8:	0f 90       	pop	r0
     efa:	0f 90       	pop	r0
     efc:	0f 90       	pop	r0
     efe:	0f 90       	pop	r0
     f00:	0f 90       	pop	r0
     f02:	f8 01       	movw	r30, r16
     f04:	e1 5e       	subi	r30, 0xE1	; 225
     f06:	fd 4f       	sbci	r31, 0xFD	; 253
     f08:	81 a9       	ldd	r24, Z+49	; 0x31
     f0a:	22 a9       	ldd	r18, Z+50	; 0x32
     f0c:	28 17       	cp	r18, r24
     f0e:	98 f4       	brcc	.+38     	; 0xf36 <cliUpdate+0x3e8>
     f10:	90 e0       	ldi	r25, 0x00	; 0
     f12:	82 1b       	sub	r24, r18
     f14:	91 09       	sbc	r25, r1
     f16:	9f 93       	push	r25
     f18:	8f 93       	push	r24
     f1a:	80 e0       	ldi	r24, 0x00	; 0
     f1c:	90 e4       	ldi	r25, 0x40	; 64
     f1e:	9f 93       	push	r25
     f20:	8f 93       	push	r24
     f22:	d8 01       	movw	r26, r16
     f24:	8c 91       	ld	r24, X
     f26:	8f 93       	push	r24
     f28:	0e 94 01 0d 	call	0x1a02	; 0x1a02 <uartPrintf>
     f2c:	0f 90       	pop	r0
     f2e:	0f 90       	pop	r0
     f30:	0f 90       	pop	r0
     f32:	0f 90       	pop	r0
     f34:	0f 90       	pop	r0
     f36:	f8 01       	movw	r30, r16
     f38:	e1 5e       	subi	r30, 0xE1	; 225
     f3a:	fd 4f       	sbci	r31, 0xFD	; 253
     f3c:	82 a9       	ldd	r24, Z+50	; 0x32
     f3e:	81 ab       	std	Z+49, r24	; 0x31
     f40:	84 e0       	ldi	r24, 0x04	; 4
     f42:	f8 01       	movw	r30, r16
     f44:	84 87       	std	Z+12, r24	; 0x0c
     f46:	01 c0       	rjmp	.+2      	; 0xf4a <cliUpdate+0x3fc>
     f48:	14 86       	std	Z+12, r1	; 0x0c
     f4a:	80 e0       	ldi	r24, 0x00	; 0
     f4c:	29 96       	adiw	r28, 0x09	; 9
     f4e:	cd bf       	out	0x3d, r28	; 61
     f50:	de bf       	out	0x3e, r29	; 62
     f52:	df 91       	pop	r29
     f54:	cf 91       	pop	r28
     f56:	1f 91       	pop	r17
     f58:	0f 91       	pop	r16
     f5a:	ff 90       	pop	r15
     f5c:	ef 90       	pop	r14
     f5e:	08 95       	ret

00000f60 <cliMain>:
     f60:	cf 93       	push	r28
     f62:	c0 91 3d 40 	lds	r28, 0x403D	; 0x80403d <cli_node+0x5>
     f66:	cc 23       	and	r28, r28
     f68:	89 f0       	breq	.+34     	; 0xf8c <cliMain+0x2c>
     f6a:	80 91 38 40 	lds	r24, 0x4038	; 0x804038 <cli_node>
     f6e:	0e 94 6c 0c 	call	0x18d8	; 0x18d8 <uartAvailable>
     f72:	67 2b       	or	r22, r23
     f74:	68 2b       	or	r22, r24
     f76:	69 2b       	or	r22, r25
     f78:	49 f0       	breq	.+18     	; 0xf8c <cliMain+0x2c>
     f7a:	80 91 38 40 	lds	r24, 0x4038	; 0x804038 <cli_node>
     f7e:	0e 94 d8 0c 	call	0x19b0	; 0x19b0 <uartRead>
     f82:	68 2f       	mov	r22, r24
     f84:	88 e3       	ldi	r24, 0x38	; 56
     f86:	90 e4       	ldi	r25, 0x40	; 64
     f88:	0e 94 a7 05 	call	0xb4e	; 0xb4e <cliUpdate>
     f8c:	8c 2f       	mov	r24, r28
     f8e:	cf 91       	pop	r28
     f90:	08 95       	ret

00000f92 <cliShowList>:
     f92:	cf 93       	push	r28
     f94:	df 93       	push	r29
     f96:	81 ed       	ldi	r24, 0xD1	; 209
     f98:	91 e0       	ldi	r25, 0x01	; 1
     f9a:	9f 93       	push	r25
     f9c:	8f 93       	push	r24
     f9e:	0e 94 18 05 	call	0xa30	; 0xa30 <cliPrintf_P>
     fa2:	81 eb       	ldi	r24, 0xB1	; 177
     fa4:	91 e0       	ldi	r25, 0x01	; 1
     fa6:	9f 93       	push	r25
     fa8:	8f 93       	push	r24
     faa:	0e 94 18 05 	call	0xa30	; 0xa30 <cliPrintf_P>
     fae:	0f 90       	pop	r0
     fb0:	0f 90       	pop	r0
     fb2:	0f 90       	pop	r0
     fb4:	0f 90       	pop	r0
     fb6:	c0 e0       	ldi	r28, 0x00	; 0
     fb8:	d0 e0       	ldi	r29, 0x00	; 0
     fba:	18 c0       	rjmp	.+48     	; 0xfec <cliShowList+0x5a>
     fbc:	ce 01       	movw	r24, r28
     fbe:	82 95       	swap	r24
     fc0:	92 95       	swap	r25
     fc2:	90 7f       	andi	r25, 0xF0	; 240
     fc4:	98 27       	eor	r25, r24
     fc6:	80 7f       	andi	r24, 0xF0	; 240
     fc8:	98 27       	eor	r25, r24
     fca:	84 57       	subi	r24, 0x74	; 116
     fcc:	9d 4b       	sbci	r25, 0xBD	; 189
     fce:	9f 93       	push	r25
     fd0:	8f 93       	push	r24
     fd2:	0e 94 fa 04 	call	0x9f4	; 0x9f4 <cliPrintf>
     fd6:	8e ea       	ldi	r24, 0xAE	; 174
     fd8:	91 e0       	ldi	r25, 0x01	; 1
     fda:	9f 93       	push	r25
     fdc:	8f 93       	push	r24
     fde:	0e 94 18 05 	call	0xa30	; 0xa30 <cliPrintf_P>
     fe2:	21 96       	adiw	r28, 0x01	; 1
     fe4:	0f 90       	pop	r0
     fe6:	0f 90       	pop	r0
     fe8:	0f 90       	pop	r0
     fea:	0f 90       	pop	r0
     fec:	80 91 8a 42 	lds	r24, 0x428A	; 0x80428a <cli_node+0x252>
     ff0:	90 91 8b 42 	lds	r25, 0x428B	; 0x80428b <cli_node+0x253>
     ff4:	c8 17       	cp	r28, r24
     ff6:	d9 07       	cpc	r29, r25
     ff8:	08 f3       	brcs	.-62     	; 0xfbc <cliShowList+0x2a>
     ffa:	8e e8       	ldi	r24, 0x8E	; 142
     ffc:	91 e0       	ldi	r25, 0x01	; 1
     ffe:	9f 93       	push	r25
    1000:	8f 93       	push	r24
    1002:	0e 94 18 05 	call	0xa30	; 0xa30 <cliPrintf_P>
    1006:	0f 90       	pop	r0
    1008:	0f 90       	pop	r0
    100a:	df 91       	pop	r29
    100c:	cf 91       	pop	r28
    100e:	08 95       	ret

00001010 <cliMemoryDump>:
    1010:	6f 92       	push	r6
    1012:	7f 92       	push	r7
    1014:	8f 92       	push	r8
    1016:	9f 92       	push	r9
    1018:	af 92       	push	r10
    101a:	bf 92       	push	r11
    101c:	cf 92       	push	r12
    101e:	df 92       	push	r13
    1020:	ef 92       	push	r14
    1022:	ff 92       	push	r15
    1024:	0f 93       	push	r16
    1026:	1f 93       	push	r17
    1028:	cf 93       	push	r28
    102a:	df 93       	push	r29
    102c:	00 d0       	rcall	.+0      	; 0x102e <cliMemoryDump+0x1e>
    102e:	00 d0       	rcall	.+0      	; 0x1030 <cliMemoryDump+0x20>
    1030:	cd b7       	in	r28, 0x3d	; 61
    1032:	de b7       	in	r29, 0x3e	; 62
    1034:	fc 01       	movw	r30, r24
    1036:	20 81       	ld	r18, Z
    1038:	31 81       	ldd	r19, Z+1	; 0x01
    103a:	02 81       	ldd	r16, Z+2	; 0x02
    103c:	13 81       	ldd	r17, Z+3	; 0x03
    103e:	21 15       	cp	r18, r1
    1040:	31 05       	cpc	r19, r1
    1042:	49 f4       	brne	.+18     	; 0x1056 <cliMemoryDump+0x46>
    1044:	8a e7       	ldi	r24, 0x7A	; 122
    1046:	91 e0       	ldi	r25, 0x01	; 1
    1048:	9f 93       	push	r25
    104a:	8f 93       	push	r24
    104c:	0e 94 18 05 	call	0xa30	; 0xa30 <cliPrintf_P>
    1050:	0f 90       	pop	r0
    1052:	0f 90       	pop	r0
    1054:	a8 c0       	rjmp	.+336    	; 0x11a6 <cliMemoryDump+0x196>
    1056:	22 30       	cpi	r18, 0x02	; 2
    1058:	31 05       	cpc	r19, r1
    105a:	5c f0       	brlt	.+22     	; 0x1072 <cliMemoryDump+0x62>
    105c:	40 e0       	ldi	r20, 0x00	; 0
    105e:	50 e0       	ldi	r21, 0x00	; 0
    1060:	60 e0       	ldi	r22, 0x00	; 0
    1062:	70 e0       	ldi	r23, 0x00	; 0
    1064:	f8 01       	movw	r30, r16
    1066:	82 81       	ldd	r24, Z+2	; 0x02
    1068:	93 81       	ldd	r25, Z+3	; 0x03
    106a:	0e 94 1d 11 	call	0x223a	; 0x223a <strtoul>
    106e:	3b 01       	movw	r6, r22
    1070:	04 c0       	rjmp	.+8      	; 0x107a <cliMemoryDump+0x6a>
    1072:	68 94       	set
    1074:	66 24       	eor	r6, r6
    1076:	64 f8       	bld	r6, 4
    1078:	71 2c       	mov	r7, r1
    107a:	f8 01       	movw	r30, r16
    107c:	80 81       	ld	r24, Z
    107e:	91 81       	ldd	r25, Z+1	; 0x01
    1080:	0e 94 2a 12 	call	0x2454	; 0x2454 <atoi>
    1084:	6c 01       	movw	r12, r24
    1086:	89 e1       	ldi	r24, 0x19	; 25
    1088:	90 e4       	ldi	r25, 0x40	; 64
    108a:	9f 93       	push	r25
    108c:	8f 93       	push	r24
    108e:	0e 94 fa 04 	call	0x9f4	; 0x9f4 <cliPrintf>
    1092:	0f 90       	pop	r0
    1094:	0f 90       	pop	r0
    1096:	46 01       	movw	r8, r12
    1098:	e1 2c       	mov	r14, r1
    109a:	f1 2c       	mov	r15, r1
    109c:	80 c0       	rjmp	.+256    	; 0x119e <cliMemoryDump+0x18e>
    109e:	c7 01       	movw	r24, r14
    10a0:	83 70       	andi	r24, 0x03	; 3
    10a2:	99 27       	eor	r25, r25
    10a4:	89 2b       	or	r24, r25
    10a6:	61 f4       	brne	.+24     	; 0x10c0 <cliMemoryDump+0xb0>
    10a8:	df 92       	push	r13
    10aa:	cf 92       	push	r12
    10ac:	80 e7       	ldi	r24, 0x70	; 112
    10ae:	91 e0       	ldi	r25, 0x01	; 1
    10b0:	9f 93       	push	r25
    10b2:	8f 93       	push	r24
    10b4:	0e 94 18 05 	call	0xa30	; 0xa30 <cliPrintf_P>
    10b8:	0f 90       	pop	r0
    10ba:	0f 90       	pop	r0
    10bc:	0f 90       	pop	r0
    10be:	0f 90       	pop	r0
    10c0:	f6 01       	movw	r30, r12
    10c2:	81 81       	ldd	r24, Z+1	; 0x01
    10c4:	8f 93       	push	r24
    10c6:	80 81       	ld	r24, Z
    10c8:	8f 93       	push	r24
    10ca:	88 e6       	ldi	r24, 0x68	; 104
    10cc:	91 e0       	ldi	r25, 0x01	; 1
    10ce:	9f 93       	push	r25
    10d0:	8f 93       	push	r24
    10d2:	0e 94 18 05 	call	0xa30	; 0xa30 <cliPrintf_P>
    10d6:	c7 01       	movw	r24, r14
    10d8:	83 70       	andi	r24, 0x03	; 3
    10da:	90 78       	andi	r25, 0x80	; 128
    10dc:	0f 90       	pop	r0
    10de:	0f 90       	pop	r0
    10e0:	0f 90       	pop	r0
    10e2:	0f 90       	pop	r0
    10e4:	99 23       	and	r25, r25
    10e6:	24 f4       	brge	.+8      	; 0x10f0 <cliMemoryDump+0xe0>
    10e8:	01 97       	sbiw	r24, 0x01	; 1
    10ea:	8c 6f       	ori	r24, 0xFC	; 252
    10ec:	9f 6f       	ori	r25, 0xFF	; 255
    10ee:	01 96       	adiw	r24, 0x01	; 1
    10f0:	03 97       	sbiw	r24, 0x03	; 3
    10f2:	09 f0       	breq	.+2      	; 0x10f6 <cliMemoryDump+0xe6>
    10f4:	4e c0       	rjmp	.+156    	; 0x1192 <cliMemoryDump+0x182>
    10f6:	84 e6       	ldi	r24, 0x64	; 100
    10f8:	91 e0       	ldi	r25, 0x01	; 1
    10fa:	9f 93       	push	r25
    10fc:	8f 93       	push	r24
    10fe:	0e 94 18 05 	call	0xa30	; 0xa30 <cliPrintf_P>
    1102:	0f 90       	pop	r0
    1104:	0f 90       	pop	r0
    1106:	a1 2c       	mov	r10, r1
    1108:	b1 2c       	mov	r11, r1
    110a:	37 c0       	rjmp	.+110    	; 0x117a <cliMemoryDump+0x16a>
    110c:	f4 01       	movw	r30, r8
    110e:	80 81       	ld	r24, Z
    1110:	91 81       	ldd	r25, Z+1	; 0x01
    1112:	a2 81       	ldd	r26, Z+2	; 0x02
    1114:	b3 81       	ldd	r27, Z+3	; 0x03
    1116:	89 83       	std	Y+1, r24	; 0x01
    1118:	9a 83       	std	Y+2, r25	; 0x02
    111a:	ab 83       	std	Y+3, r26	; 0x03
    111c:	bc 83       	std	Y+4, r27	; 0x04
    111e:	00 e0       	ldi	r16, 0x00	; 0
    1120:	10 e0       	ldi	r17, 0x00	; 0
    1122:	22 c0       	rjmp	.+68     	; 0x1168 <cliMemoryDump+0x158>
    1124:	e1 e0       	ldi	r30, 0x01	; 1
    1126:	f0 e0       	ldi	r31, 0x00	; 0
    1128:	ec 0f       	add	r30, r28
    112a:	fd 1f       	adc	r31, r29
    112c:	e0 0f       	add	r30, r16
    112e:	f1 1f       	adc	r31, r17
    1130:	80 81       	ld	r24, Z
    1132:	90 ee       	ldi	r25, 0xE0	; 224
    1134:	98 0f       	add	r25, r24
    1136:	9f 35       	cpi	r25, 0x5F	; 95
    1138:	68 f4       	brcc	.+26     	; 0x1154 <cliMemoryDump+0x144>
    113a:	1f 92       	push	r1
    113c:	8f 93       	push	r24
    113e:	81 e6       	ldi	r24, 0x61	; 97
    1140:	91 e0       	ldi	r25, 0x01	; 1
    1142:	9f 93       	push	r25
    1144:	8f 93       	push	r24
    1146:	0e 94 18 05 	call	0xa30	; 0xa30 <cliPrintf_P>
    114a:	0f 90       	pop	r0
    114c:	0f 90       	pop	r0
    114e:	0f 90       	pop	r0
    1150:	0f 90       	pop	r0
    1152:	08 c0       	rjmp	.+16     	; 0x1164 <cliMemoryDump+0x154>
    1154:	8f e5       	ldi	r24, 0x5F	; 95
    1156:	91 e0       	ldi	r25, 0x01	; 1
    1158:	9f 93       	push	r25
    115a:	8f 93       	push	r24
    115c:	0e 94 18 05 	call	0xa30	; 0xa30 <cliPrintf_P>
    1160:	0f 90       	pop	r0
    1162:	0f 90       	pop	r0
    1164:	0f 5f       	subi	r16, 0xFF	; 255
    1166:	1f 4f       	sbci	r17, 0xFF	; 255
    1168:	04 30       	cpi	r16, 0x04	; 4
    116a:	11 05       	cpc	r17, r1
    116c:	dc f2       	brlt	.-74     	; 0x1124 <cliMemoryDump+0x114>
    116e:	f2 e0       	ldi	r31, 0x02	; 2
    1170:	8f 0e       	add	r8, r31
    1172:	91 1c       	adc	r9, r1
    1174:	8f ef       	ldi	r24, 0xFF	; 255
    1176:	a8 1a       	sub	r10, r24
    1178:	b8 0a       	sbc	r11, r24
    117a:	e4 e0       	ldi	r30, 0x04	; 4
    117c:	ae 16       	cp	r10, r30
    117e:	b1 04       	cpc	r11, r1
    1180:	2c f2       	brlt	.-118    	; 0x110c <cliMemoryDump+0xfc>
    1182:	89 e5       	ldi	r24, 0x59	; 89
    1184:	91 e0       	ldi	r25, 0x01	; 1
    1186:	9f 93       	push	r25
    1188:	8f 93       	push	r24
    118a:	0e 94 18 05 	call	0xa30	; 0xa30 <cliPrintf_P>
    118e:	0f 90       	pop	r0
    1190:	0f 90       	pop	r0
    1192:	f2 e0       	ldi	r31, 0x02	; 2
    1194:	cf 0e       	add	r12, r31
    1196:	d1 1c       	adc	r13, r1
    1198:	8f ef       	ldi	r24, 0xFF	; 255
    119a:	e8 1a       	sub	r14, r24
    119c:	f8 0a       	sbc	r15, r24
    119e:	e6 14       	cp	r14, r6
    11a0:	f7 04       	cpc	r15, r7
    11a2:	0c f4       	brge	.+2      	; 0x11a6 <cliMemoryDump+0x196>
    11a4:	7c cf       	rjmp	.-264    	; 0x109e <cliMemoryDump+0x8e>
    11a6:	24 96       	adiw	r28, 0x04	; 4
    11a8:	cd bf       	out	0x3d, r28	; 61
    11aa:	de bf       	out	0x3e, r29	; 62
    11ac:	df 91       	pop	r29
    11ae:	cf 91       	pop	r28
    11b0:	1f 91       	pop	r17
    11b2:	0f 91       	pop	r16
    11b4:	ff 90       	pop	r15
    11b6:	ef 90       	pop	r14
    11b8:	df 90       	pop	r13
    11ba:	cf 90       	pop	r12
    11bc:	bf 90       	pop	r11
    11be:	af 90       	pop	r10
    11c0:	9f 90       	pop	r9
    11c2:	8f 90       	pop	r8
    11c4:	7f 90       	pop	r7
    11c6:	6f 90       	pop	r6
    11c8:	08 95       	ret

000011ca <cliMemoryDump_P>:
    11ca:	2f 92       	push	r2
    11cc:	3f 92       	push	r3
    11ce:	4f 92       	push	r4
    11d0:	5f 92       	push	r5
    11d2:	6f 92       	push	r6
    11d4:	7f 92       	push	r7
    11d6:	8f 92       	push	r8
    11d8:	9f 92       	push	r9
    11da:	af 92       	push	r10
    11dc:	bf 92       	push	r11
    11de:	cf 92       	push	r12
    11e0:	df 92       	push	r13
    11e2:	ef 92       	push	r14
    11e4:	ff 92       	push	r15
    11e6:	0f 93       	push	r16
    11e8:	1f 93       	push	r17
    11ea:	cf 93       	push	r28
    11ec:	df 93       	push	r29
    11ee:	00 d0       	rcall	.+0      	; 0x11f0 <cliMemoryDump_P+0x26>
    11f0:	00 d0       	rcall	.+0      	; 0x11f2 <cliMemoryDump_P+0x28>
    11f2:	cd b7       	in	r28, 0x3d	; 61
    11f4:	de b7       	in	r29, 0x3e	; 62
    11f6:	fc 01       	movw	r30, r24
    11f8:	20 81       	ld	r18, Z
    11fa:	31 81       	ldd	r19, Z+1	; 0x01
    11fc:	02 81       	ldd	r16, Z+2	; 0x02
    11fe:	13 81       	ldd	r17, Z+3	; 0x03
    1200:	21 15       	cp	r18, r1
    1202:	31 05       	cpc	r19, r1
    1204:	49 f4       	brne	.+18     	; 0x1218 <cliMemoryDump_P+0x4e>
    1206:	84 e4       	ldi	r24, 0x44	; 68
    1208:	91 e0       	ldi	r25, 0x01	; 1
    120a:	9f 93       	push	r25
    120c:	8f 93       	push	r24
    120e:	0e 94 18 05 	call	0xa30	; 0xa30 <cliPrintf_P>
    1212:	0f 90       	pop	r0
    1214:	0f 90       	pop	r0
    1216:	b8 c0       	rjmp	.+368    	; 0x1388 <cliMemoryDump_P+0x1be>
    1218:	22 30       	cpi	r18, 0x02	; 2
    121a:	31 05       	cpc	r19, r1
    121c:	5c f0       	brlt	.+22     	; 0x1234 <cliMemoryDump_P+0x6a>
    121e:	40 e0       	ldi	r20, 0x00	; 0
    1220:	50 e0       	ldi	r21, 0x00	; 0
    1222:	60 e0       	ldi	r22, 0x00	; 0
    1224:	70 e0       	ldi	r23, 0x00	; 0
    1226:	f8 01       	movw	r30, r16
    1228:	82 81       	ldd	r24, Z+2	; 0x02
    122a:	93 81       	ldd	r25, Z+3	; 0x03
    122c:	0e 94 1d 11 	call	0x223a	; 0x223a <strtoul>
    1230:	1b 01       	movw	r2, r22
    1232:	04 c0       	rjmp	.+8      	; 0x123c <cliMemoryDump_P+0x72>
    1234:	68 94       	set
    1236:	22 24       	eor	r2, r2
    1238:	24 f8       	bld	r2, 4
    123a:	31 2c       	mov	r3, r1
    123c:	40 e0       	ldi	r20, 0x00	; 0
    123e:	50 e0       	ldi	r21, 0x00	; 0
    1240:	60 e0       	ldi	r22, 0x00	; 0
    1242:	70 e0       	ldi	r23, 0x00	; 0
    1244:	f8 01       	movw	r30, r16
    1246:	80 81       	ld	r24, Z
    1248:	91 81       	ldd	r25, Z+1	; 0x01
    124a:	0e 94 1d 11 	call	0x223a	; 0x223a <strtoul>
    124e:	4b 01       	movw	r8, r22
    1250:	5c 01       	movw	r10, r24
    1252:	89 e1       	ldi	r24, 0x19	; 25
    1254:	90 e4       	ldi	r25, 0x40	; 64
    1256:	9f 93       	push	r25
    1258:	8f 93       	push	r24
    125a:	0e 94 fa 04 	call	0x9f4	; 0x9f4 <cliPrintf>
    125e:	0f 90       	pop	r0
    1260:	0f 90       	pop	r0
    1262:	24 01       	movw	r4, r8
    1264:	35 01       	movw	r6, r10
    1266:	e1 2c       	mov	r14, r1
    1268:	f1 2c       	mov	r15, r1
    126a:	8a c0       	rjmp	.+276    	; 0x1380 <cliMemoryDump_P+0x1b6>
    126c:	c7 01       	movw	r24, r14
    126e:	83 70       	andi	r24, 0x03	; 3
    1270:	99 27       	eor	r25, r25
    1272:	89 2b       	or	r24, r25
    1274:	61 f4       	brne	.+24     	; 0x128e <cliMemoryDump_P+0xc4>
    1276:	9f 92       	push	r9
    1278:	8f 92       	push	r8
    127a:	8a e3       	ldi	r24, 0x3A	; 58
    127c:	91 e0       	ldi	r25, 0x01	; 1
    127e:	9f 93       	push	r25
    1280:	8f 93       	push	r24
    1282:	0e 94 18 05 	call	0xa30	; 0xa30 <cliPrintf_P>
    1286:	0f 90       	pop	r0
    1288:	0f 90       	pop	r0
    128a:	0f 90       	pop	r0
    128c:	0f 90       	pop	r0
    128e:	ab be       	out	0x3b, r10	; 59
    1290:	f4 01       	movw	r30, r8
    1292:	87 91       	elpm	r24, Z+
    1294:	97 91       	elpm	r25, Z+
    1296:	a7 91       	elpm	r26, Z+
    1298:	b6 91       	elpm	r27, Z
    129a:	bf 93       	push	r27
    129c:	af 93       	push	r26
    129e:	9f 93       	push	r25
    12a0:	8f 93       	push	r24
    12a2:	82 e3       	ldi	r24, 0x32	; 50
    12a4:	91 e0       	ldi	r25, 0x01	; 1
    12a6:	9f 93       	push	r25
    12a8:	8f 93       	push	r24
    12aa:	0e 94 18 05 	call	0xa30	; 0xa30 <cliPrintf_P>
    12ae:	c7 01       	movw	r24, r14
    12b0:	83 70       	andi	r24, 0x03	; 3
    12b2:	90 78       	andi	r25, 0x80	; 128
    12b4:	0f 90       	pop	r0
    12b6:	0f 90       	pop	r0
    12b8:	0f 90       	pop	r0
    12ba:	0f 90       	pop	r0
    12bc:	0f 90       	pop	r0
    12be:	0f 90       	pop	r0
    12c0:	99 23       	and	r25, r25
    12c2:	24 f4       	brge	.+8      	; 0x12cc <cliMemoryDump_P+0x102>
    12c4:	01 97       	sbiw	r24, 0x01	; 1
    12c6:	8c 6f       	ori	r24, 0xFC	; 252
    12c8:	9f 6f       	ori	r25, 0xFF	; 255
    12ca:	01 96       	adiw	r24, 0x01	; 1
    12cc:	03 97       	sbiw	r24, 0x03	; 3
    12ce:	09 f0       	breq	.+2      	; 0x12d2 <cliMemoryDump_P+0x108>
    12d0:	4f c0       	rjmp	.+158    	; 0x1370 <cliMemoryDump_P+0x1a6>
    12d2:	8e e2       	ldi	r24, 0x2E	; 46
    12d4:	91 e0       	ldi	r25, 0x01	; 1
    12d6:	9f 93       	push	r25
    12d8:	8f 93       	push	r24
    12da:	0e 94 18 05 	call	0xa30	; 0xa30 <cliPrintf_P>
    12de:	0f 90       	pop	r0
    12e0:	0f 90       	pop	r0
    12e2:	c1 2c       	mov	r12, r1
    12e4:	d1 2c       	mov	r13, r1
    12e6:	38 c0       	rjmp	.+112    	; 0x1358 <cliMemoryDump_P+0x18e>
    12e8:	24 e0       	ldi	r18, 0x04	; 4
    12ea:	30 e0       	ldi	r19, 0x00	; 0
    12ec:	b3 01       	movw	r22, r6
    12ee:	a2 01       	movw	r20, r4
    12f0:	ce 01       	movw	r24, r28
    12f2:	01 96       	adiw	r24, 0x01	; 1
    12f4:	0e 94 2e 01 	call	0x25c	; 0x25c <memcpy_PF>
    12f8:	00 e0       	ldi	r16, 0x00	; 0
    12fa:	10 e0       	ldi	r17, 0x00	; 0
    12fc:	22 c0       	rjmp	.+68     	; 0x1342 <cliMemoryDump_P+0x178>
    12fe:	e1 e0       	ldi	r30, 0x01	; 1
    1300:	f0 e0       	ldi	r31, 0x00	; 0
    1302:	ec 0f       	add	r30, r28
    1304:	fd 1f       	adc	r31, r29
    1306:	e0 0f       	add	r30, r16
    1308:	f1 1f       	adc	r31, r17
    130a:	80 81       	ld	r24, Z
    130c:	90 ee       	ldi	r25, 0xE0	; 224
    130e:	98 0f       	add	r25, r24
    1310:	9f 35       	cpi	r25, 0x5F	; 95
    1312:	68 f4       	brcc	.+26     	; 0x132e <cliMemoryDump_P+0x164>
    1314:	1f 92       	push	r1
    1316:	8f 93       	push	r24
    1318:	8b e2       	ldi	r24, 0x2B	; 43
    131a:	91 e0       	ldi	r25, 0x01	; 1
    131c:	9f 93       	push	r25
    131e:	8f 93       	push	r24
    1320:	0e 94 18 05 	call	0xa30	; 0xa30 <cliPrintf_P>
    1324:	0f 90       	pop	r0
    1326:	0f 90       	pop	r0
    1328:	0f 90       	pop	r0
    132a:	0f 90       	pop	r0
    132c:	08 c0       	rjmp	.+16     	; 0x133e <cliMemoryDump_P+0x174>
    132e:	89 e2       	ldi	r24, 0x29	; 41
    1330:	91 e0       	ldi	r25, 0x01	; 1
    1332:	9f 93       	push	r25
    1334:	8f 93       	push	r24
    1336:	0e 94 18 05 	call	0xa30	; 0xa30 <cliPrintf_P>
    133a:	0f 90       	pop	r0
    133c:	0f 90       	pop	r0
    133e:	0f 5f       	subi	r16, 0xFF	; 255
    1340:	1f 4f       	sbci	r17, 0xFF	; 255
    1342:	04 30       	cpi	r16, 0x04	; 4
    1344:	11 05       	cpc	r17, r1
    1346:	dc f2       	brlt	.-74     	; 0x12fe <cliMemoryDump_P+0x134>
    1348:	f4 e0       	ldi	r31, 0x04	; 4
    134a:	4f 0e       	add	r4, r31
    134c:	51 1c       	adc	r5, r1
    134e:	61 1c       	adc	r6, r1
    1350:	71 1c       	adc	r7, r1
    1352:	8f ef       	ldi	r24, 0xFF	; 255
    1354:	c8 1a       	sub	r12, r24
    1356:	d8 0a       	sbc	r13, r24
    1358:	e4 e0       	ldi	r30, 0x04	; 4
    135a:	ce 16       	cp	r12, r30
    135c:	d1 04       	cpc	r13, r1
    135e:	24 f2       	brlt	.-120    	; 0x12e8 <cliMemoryDump_P+0x11e>
    1360:	83 e2       	ldi	r24, 0x23	; 35
    1362:	91 e0       	ldi	r25, 0x01	; 1
    1364:	9f 93       	push	r25
    1366:	8f 93       	push	r24
    1368:	0e 94 18 05 	call	0xa30	; 0xa30 <cliPrintf_P>
    136c:	0f 90       	pop	r0
    136e:	0f 90       	pop	r0
    1370:	f4 e0       	ldi	r31, 0x04	; 4
    1372:	8f 0e       	add	r8, r31
    1374:	91 1c       	adc	r9, r1
    1376:	a1 1c       	adc	r10, r1
    1378:	b1 1c       	adc	r11, r1
    137a:	8f ef       	ldi	r24, 0xFF	; 255
    137c:	e8 1a       	sub	r14, r24
    137e:	f8 0a       	sbc	r15, r24
    1380:	e2 14       	cp	r14, r2
    1382:	f3 04       	cpc	r15, r3
    1384:	0c f4       	brge	.+2      	; 0x1388 <cliMemoryDump_P+0x1be>
    1386:	72 cf       	rjmp	.-284    	; 0x126c <cliMemoryDump_P+0xa2>
    1388:	24 96       	adiw	r28, 0x04	; 4
    138a:	cd bf       	out	0x3d, r28	; 61
    138c:	de bf       	out	0x3e, r29	; 62
    138e:	df 91       	pop	r29
    1390:	cf 91       	pop	r28
    1392:	1f 91       	pop	r17
    1394:	0f 91       	pop	r16
    1396:	ff 90       	pop	r15
    1398:	ef 90       	pop	r14
    139a:	df 90       	pop	r13
    139c:	cf 90       	pop	r12
    139e:	bf 90       	pop	r11
    13a0:	af 90       	pop	r10
    13a2:	9f 90       	pop	r9
    13a4:	8f 90       	pop	r8
    13a6:	7f 90       	pop	r7
    13a8:	6f 90       	pop	r6
    13aa:	5f 90       	pop	r5
    13ac:	4f 90       	pop	r4
    13ae:	3f 90       	pop	r3
    13b0:	2f 90       	pop	r2
    13b2:	08 95       	ret

000013b4 <cliAdd>:

bool cliAdd(const char *cmd_str, void (*p_func)(cli_args_t *))
{
    13b4:	ef 92       	push	r14
    13b6:	ff 92       	push	r15
    13b8:	0f 93       	push	r16
    13ba:	1f 93       	push	r17
    13bc:	cf 93       	push	r28
    13be:	df 93       	push	r29
	bool ret = true;
	cli_t *p_cli = &cli_node;
	uint16_t index;

	if (p_cli->cmd_count >= CLI_CMD_LIST_MAX)
    13c0:	20 91 8a 42 	lds	r18, 0x428A	; 0x80428a <cli_node+0x252>
    13c4:	30 91 8b 42 	lds	r19, 0x428B	; 0x80428b <cli_node+0x253>
    13c8:	20 31       	cpi	r18, 0x10	; 16
    13ca:	31 05       	cpc	r19, r1
    13cc:	f8 f4       	brcc	.+62     	; 0x140c <cliAdd+0x58>
    13ce:	8b 01       	movw	r16, r22
    13d0:	bc 01       	movw	r22, r24
		return false;
	}

	index = p_cli->cmd_count;

	strcpy(p_cli->cmd_list[index].cmd_str, cmd_str);
    13d2:	e9 01       	movw	r28, r18
    13d4:	c2 95       	swap	r28
    13d6:	d2 95       	swap	r29
    13d8:	d0 7f       	andi	r29, 0xF0	; 240
    13da:	dc 27       	eor	r29, r28
    13dc:	c0 7f       	andi	r28, 0xF0	; 240
    13de:	dc 27       	eor	r29, r28
    13e0:	ce 01       	movw	r24, r28
    13e2:	84 57       	subi	r24, 0x74	; 116
    13e4:	9d 4b       	sbci	r25, 0xBD	; 189
    13e6:	7c 01       	movw	r14, r24
    13e8:	0e 94 72 12 	call	0x24e4	; 0x24e4 <strcpy>
	p_cli->cmd_list[index].cmd_func = p_func;
    13ec:	c6 56       	subi	r28, 0x66	; 102
    13ee:	dd 4b       	sbci	r29, 0xBD	; 189
    13f0:	08 83       	st	Y, r16
    13f2:	19 83       	std	Y+1, r17	; 0x01

	cliToUpper(p_cli->cmd_list[index].cmd_str);
    13f4:	c7 01       	movw	r24, r14
    13f6:	0e 94 75 03 	call	0x6ea	; 0x6ea <cliToUpper>

	p_cli->cmd_count++;
    13fa:	ea e8       	ldi	r30, 0x8A	; 138
    13fc:	f2 e4       	ldi	r31, 0x42	; 66
    13fe:	80 81       	ld	r24, Z
    1400:	91 81       	ldd	r25, Z+1	; 0x01
    1402:	01 96       	adiw	r24, 0x01	; 1
    1404:	80 83       	st	Z, r24
    1406:	91 83       	std	Z+1, r25	; 0x01

	return ret;
    1408:	81 e0       	ldi	r24, 0x01	; 1
    140a:	01 c0       	rjmp	.+2      	; 0x140e <cliAdd+0x5a>
	cli_t *p_cli = &cli_node;
	uint16_t index;

	if (p_cli->cmd_count >= CLI_CMD_LIST_MAX)
	{
		return false;
    140c:	80 e0       	ldi	r24, 0x00	; 0
	cliToUpper(p_cli->cmd_list[index].cmd_str);

	p_cli->cmd_count++;

	return ret;
}
    140e:	df 91       	pop	r29
    1410:	cf 91       	pop	r28
    1412:	1f 91       	pop	r17
    1414:	0f 91       	pop	r16
    1416:	ff 90       	pop	r15
    1418:	ef 90       	pop	r14
    141a:	08 95       	ret

0000141c <cliInit>:
void cliMemoryDump_P(cli_args_t *args);


bool cliInit(void)
{
	cli_node.is_open = false;
    141c:	e8 e3       	ldi	r30, 0x38	; 56
    141e:	f0 e4       	ldi	r31, 0x40	; 64
    1420:	15 82       	std	Z+5, r1	; 0x05
	cli_node.is_log  = false;
    1422:	16 82       	std	Z+6, r1	; 0x06
	cli_node.state   = CLI_RX_IDLE;
    1424:	14 86       	std	Z+12, r1	; 0x0c

	cli_node.hist_line_i     = 0;
    1426:	10 92 88 41 	sts	0x4188, r1	; 0x804188 <cli_node+0x150>
	cli_node.hist_line_last  = 0;
    142a:	10 92 89 41 	sts	0x4189, r1	; 0x804189 <cli_node+0x151>
	cli_node.hist_line_count = 0;
    142e:	10 92 8a 41 	sts	0x418A, r1	; 0x80418a <cli_node+0x152>
	cli_node.hist_line_new   = false;
    1432:	10 92 87 41 	sts	0x4187, r1	; 0x804187 <cli_node+0x14f>

	cli_node.cmd_args.getData  = cliArgsGetData;
    1436:	82 ee       	ldi	r24, 0xE2	; 226
    1438:	93 e0       	ldi	r25, 0x03	; 3
    143a:	80 93 90 43 	sts	0x4390, r24	; 0x804390 <cli_node+0x358>
    143e:	90 93 91 43 	sts	0x4391, r25	; 0x804391 <cli_node+0x359>
	cli_node.cmd_args.getFloat = cliArgsGetFloat;
    1442:	87 ec       	ldi	r24, 0xC7	; 199
    1444:	93 e0       	ldi	r25, 0x03	; 3
    1446:	80 93 92 43 	sts	0x4392, r24	; 0x804392 <cli_node+0x35a>
    144a:	90 93 93 43 	sts	0x4393, r25	; 0x804393 <cli_node+0x35b>
	cli_node.cmd_args.getStr   = cliArgsGetStr;
    144e:	83 e9       	ldi	r24, 0x93	; 147
    1450:	93 e0       	ldi	r25, 0x03	; 3
    1452:	80 93 94 43 	sts	0x4394, r24	; 0x804394 <cli_node+0x35c>
    1456:	90 93 95 43 	sts	0x4395, r25	; 0x804395 <cli_node+0x35d>
	cli_node.cmd_args.isStr    = cliArgsIsStr;
    145a:	89 ea       	ldi	r24, 0xA9	; 169
    145c:	93 e0       	ldi	r25, 0x03	; 3
    145e:	80 93 96 43 	sts	0x4396, r24	; 0x804396 <cli_node+0x35e>
    1462:	90 93 97 43 	sts	0x4397, r25	; 0x804397 <cli_node+0x35f>

	cliLineClean(&cli_node);
    1466:	cf 01       	movw	r24, r30
    1468:	0e 94 33 03 	call	0x666	; 0x666 <cliLineClean>


	cliAdd("help", cliShowList);
    146c:	69 ec       	ldi	r22, 0xC9	; 201
    146e:	77 e0       	ldi	r23, 0x07	; 7
    1470:	8e e1       	ldi	r24, 0x1E	; 30
    1472:	90 e4       	ldi	r25, 0x40	; 64
    1474:	0e 94 da 09 	call	0x13b4	; 0x13b4 <cliAdd>
	cliAdd("md"  , cliMemoryDump);
    1478:	68 e0       	ldi	r22, 0x08	; 8
    147a:	78 e0       	ldi	r23, 0x08	; 8
    147c:	83 e2       	ldi	r24, 0x23	; 35
    147e:	90 e4       	ldi	r25, 0x40	; 64
    1480:	0e 94 da 09 	call	0x13b4	; 0x13b4 <cliAdd>
	cliAdd("mdp" , cliMemoryDump_P);
    1484:	65 ee       	ldi	r22, 0xE5	; 229
    1486:	78 e0       	ldi	r23, 0x08	; 8
    1488:	86 e2       	ldi	r24, 0x26	; 38
    148a:	90 e4       	ldi	r25, 0x40	; 64
    148c:	0e 94 da 09 	call	0x13b4	; 0x13b4 <cliAdd>

	return true;
}
    1490:	81 e0       	ldi	r24, 0x01	; 1
    1492:	08 95       	ret

00001494 <i2cInit>:



bool i2cInit(void)
{
	PORTA.DIRSET = (1 << 2) | (1 << 3);
    1494:	e0 e0       	ldi	r30, 0x00	; 0
    1496:	f4 e0       	ldi	r31, 0x04	; 4
    1498:	8c e0       	ldi	r24, 0x0C	; 12
    149a:	81 83       	std	Z+1, r24	; 0x01
	PORTA.OUTCLR = (1 << 2) | (1 << 3);
    149c:	86 83       	std	Z+6, r24	; 0x06
	PORTMUX.TWIROUTEA = 0x00;	
    149e:	10 92 e5 05 	sts	0x05E5, r1	; 0x8005e5 <__TEXT_REGION_LENGTH__+0x7e05e5>

	cliAdd("i2c", cliI2c);
    14a2:	6d e5       	ldi	r22, 0x5D	; 93
    14a4:	7b e0       	ldi	r23, 0x0B	; 11
    14a6:	8a e2       	ldi	r24, 0x2A	; 42
    14a8:	90 e4       	ldi	r25, 0x40	; 64
    14aa:	0e 94 da 09 	call	0x13b4	; 0x13b4 <cliAdd>
	
	return true;
}
    14ae:	81 e0       	ldi	r24, 0x01	; 1
    14b0:	08 95       	ret

000014b2 <i2cBegin>:


bool i2cBegin(uint8_t ch, uint32_t freq_khz)
{
	switch(ch)
    14b2:	81 11       	cpse	r24, r1
    14b4:	28 c0       	rjmp	.+80     	; 0x1506 <i2cBegin+0x54>
    14b6:	cb 01       	movw	r24, r22
    14b8:	ba 01       	movw	r22, r20
	{
		case _DEF_I2C1:
		TWI0.MBAUD  = (uint8_t)BAUD(freq_khz, 0); /* set MBAUD register */
    14ba:	0e 94 7c 0e 	call	0x1cf8	; 0x1cf8 <__floatunsisf>
    14be:	9b 01       	movw	r18, r22
    14c0:	ac 01       	movw	r20, r24
    14c2:	60 e0       	ldi	r22, 0x00	; 0
    14c4:	7b e1       	ldi	r23, 0x1B	; 27
    14c6:	87 eb       	ldi	r24, 0xB7	; 183
    14c8:	9b e4       	ldi	r25, 0x4B	; 75
    14ca:	0e 94 db 0d 	call	0x1bb6	; 0x1bb6 <__divsf3>
    14ce:	20 e0       	ldi	r18, 0x00	; 0
    14d0:	30 e0       	ldi	r19, 0x00	; 0
    14d2:	40 e2       	ldi	r20, 0x20	; 32
    14d4:	51 e4       	ldi	r21, 0x41	; 65
    14d6:	0e 94 6e 0d 	call	0x1adc	; 0x1adc <__subsf3>
    14da:	20 e0       	ldi	r18, 0x00	; 0
    14dc:	30 e0       	ldi	r19, 0x00	; 0
    14de:	40 e0       	ldi	r20, 0x00	; 0
    14e0:	5f e3       	ldi	r21, 0x3F	; 63
    14e2:	0e 94 0a 0f 	call	0x1e14	; 0x1e14 <__mulsf3>
    14e6:	0e 94 4d 0e 	call	0x1c9a	; 0x1c9a <__fixunssfsi>
    14ea:	e0 e0       	ldi	r30, 0x00	; 0
    14ec:	f9 e0       	ldi	r31, 0x09	; 9
    14ee:	66 83       	std	Z+6, r22	; 0x06
 		TWI0.MCTRLA = 1 << TWI_ENABLE_bp        /* Enable TWI Master: enabled */
    14f0:	81 e0       	ldi	r24, 0x01	; 1
    14f2:	83 83       	std	Z+3, r24	; 0x03
					| 0 << TWI_SMEN_bp			/* Smart Mode Enable: disabled */
					| TWI_TIMEOUT_DISABLED_gc	/* Bus Timeout Disabled */
					| 0 << TWI_WIEN_bp;			/* Write Interrupt Enable: disabled */


 		TWI0.MCTRLB  |= TWI_FLUSH_bm;
    14f4:	84 81       	ldd	r24, Z+4	; 0x04
    14f6:	88 60       	ori	r24, 0x08	; 8
    14f8:	84 83       	std	Z+4, r24	; 0x04
		TWI0.MSTATUS |= TWI_BUSSTATE_IDLE_gc;
    14fa:	85 81       	ldd	r24, Z+5	; 0x05
    14fc:	81 60       	ori	r24, 0x01	; 1
    14fe:	85 83       	std	Z+5, r24	; 0x05
		TWI0.MSTATUS |= (TWI_RIF_bm | TWI_WIF_bm);
    1500:	85 81       	ldd	r24, Z+5	; 0x05
    1502:	80 6c       	ori	r24, 0xC0	; 192
    1504:	85 83       	std	Z+5, r24	; 0x05

		break;
	}
	
	return true;
}
    1506:	81 e0       	ldi	r24, 0x01	; 1
    1508:	08 95       	ret

0000150a <i2cStart>:

bool i2cStart(uint8_t ch)
{
    150a:	cf 92       	push	r12
    150c:	df 92       	push	r13
    150e:	ef 92       	push	r14
    1510:	ff 92       	push	r15
	uint32_t pre_time = 0;
	uint8_t  timeout  = 10;
	switch(ch)
    1512:	81 11       	cpse	r24, r1
    1514:	1e c0       	rjmp	.+60     	; 0x1552 <i2cStart+0x48>
	{
		case _DEF_I2C1:
		TWI0.MCTRLB   = TWI_FLUSH_bm;
    1516:	e0 e0       	ldi	r30, 0x00	; 0
    1518:	f9 e0       	ldi	r31, 0x09	; 9
    151a:	88 e0       	ldi	r24, 0x08	; 8
    151c:	84 83       	std	Z+4, r24	; 0x04
		TWI0.MSTATUS |= TWI_BUSSTATE_IDLE_gc;
    151e:	85 81       	ldd	r24, Z+5	; 0x05
    1520:	81 60       	ori	r24, 0x01	; 1
    1522:	85 83       	std	Z+5, r24	; 0x05
		
		pre_time = millis();
    1524:	0e 94 1c 02 	call	0x438	; 0x438 <millis>
    1528:	6b 01       	movw	r12, r22
    152a:	7c 01       	movw	r14, r24
		while(1)
		{
			if((TWI0.MSTATUS & TWI_BUSSTATE_BUSY_gc) != TWI_BUSSTATE_BUSY_gc)
    152c:	80 91 05 09 	lds	r24, 0x0905	; 0x800905 <__TEXT_REGION_LENGTH__+0x7e0905>
    1530:	83 70       	andi	r24, 0x03	; 3
    1532:	83 30       	cpi	r24, 0x03	; 3
    1534:	81 f4       	brne	.+32     	; 0x1556 <i2cStart+0x4c>
			{
				break;
			}
			if(millis() - pre_time >= timeout)
    1536:	0e 94 1c 02 	call	0x438	; 0x438 <millis>
    153a:	dc 01       	movw	r26, r24
    153c:	cb 01       	movw	r24, r22
    153e:	8c 19       	sub	r24, r12
    1540:	9d 09       	sbc	r25, r13
    1542:	ae 09       	sbc	r26, r14
    1544:	bf 09       	sbc	r27, r15
    1546:	0a 97       	sbiw	r24, 0x0a	; 10
    1548:	a1 05       	cpc	r26, r1
    154a:	b1 05       	cpc	r27, r1
    154c:	78 f3       	brcs	.-34     	; 0x152c <i2cStart+0x22>
			{
				return false;
    154e:	80 e0       	ldi	r24, 0x00	; 0
    1550:	03 c0       	rjmp	.+6      	; 0x1558 <i2cStart+0x4e>
			}
		}	
		break;
	}
	
	return true;
    1552:	81 e0       	ldi	r24, 0x01	; 1
    1554:	01 c0       	rjmp	.+2      	; 0x1558 <i2cStart+0x4e>
    1556:	81 e0       	ldi	r24, 0x01	; 1
}
    1558:	ff 90       	pop	r15
    155a:	ef 90       	pop	r14
    155c:	df 90       	pop	r13
    155e:	cf 90       	pop	r12
    1560:	08 95       	ret

00001562 <i2cSendAddr>:
 
bool i2cSendAddr(uint8_t ch, uint8_t dev_addr)
{
    1562:	cf 92       	push	r12
    1564:	df 92       	push	r13
    1566:	ef 92       	push	r14
    1568:	ff 92       	push	r15
	bool     ret      = false;
	uint32_t pre_time = 0;
	uint8_t  timeout  = 10;
	
	switch(ch)
    156a:	81 11       	cpse	r24, r1
    156c:	25 c0       	rjmp	.+74     	; 0x15b8 <i2cSendAddr+0x56>
	{
		case _DEF_I2C1:
		TWI0.MSTATUS |= (TWI_RIF_bm | TWI_WIF_bm);
    156e:	e0 e0       	ldi	r30, 0x00	; 0
    1570:	f9 e0       	ldi	r31, 0x09	; 9
    1572:	85 81       	ldd	r24, Z+5	; 0x05
    1574:	80 6c       	ori	r24, 0xC0	; 192
    1576:	85 83       	std	Z+5, r24	; 0x05
		TWI0.MADDR = dev_addr;
    1578:	67 83       	std	Z+7, r22	; 0x07
		
		pre_time = millis();
    157a:	0e 94 1c 02 	call	0x438	; 0x438 <millis>
    157e:	6b 01       	movw	r12, r22
    1580:	7c 01       	movw	r14, r24
		while (!(TWI0.MSTATUS & TWI_RIF_bm) && !(TWI0.MSTATUS & TWI_WIF_bm))
    1582:	0c c0       	rjmp	.+24     	; 0x159c <i2cSendAddr+0x3a>
		{
			if(millis() - pre_time >= timeout)
    1584:	0e 94 1c 02 	call	0x438	; 0x438 <millis>
    1588:	dc 01       	movw	r26, r24
    158a:	cb 01       	movw	r24, r22
    158c:	8c 19       	sub	r24, r12
    158e:	9d 09       	sbc	r25, r13
    1590:	ae 09       	sbc	r26, r14
    1592:	bf 09       	sbc	r27, r15
    1594:	0a 97       	sbiw	r24, 0x0a	; 10
    1596:	a1 05       	cpc	r26, r1
    1598:	b1 05       	cpc	r27, r1
    159a:	80 f4       	brcc	.+32     	; 0x15bc <i2cSendAddr+0x5a>
		case _DEF_I2C1:
		TWI0.MSTATUS |= (TWI_RIF_bm | TWI_WIF_bm);
		TWI0.MADDR = dev_addr;
		
		pre_time = millis();
		while (!(TWI0.MSTATUS & TWI_RIF_bm) && !(TWI0.MSTATUS & TWI_WIF_bm))
    159c:	80 91 05 09 	lds	r24, 0x0905	; 0x800905 <__TEXT_REGION_LENGTH__+0x7e0905>
    15a0:	88 23       	and	r24, r24
    15a2:	24 f0       	brlt	.+8      	; 0x15ac <i2cSendAddr+0x4a>
    15a4:	80 91 05 09 	lds	r24, 0x0905	; 0x800905 <__TEXT_REGION_LENGTH__+0x7e0905>
    15a8:	86 ff       	sbrs	r24, 6
    15aa:	ec cf       	rjmp	.-40     	; 0x1584 <i2cSendAddr+0x22>
			{
				return false;
			}
		}
		
		if(!(TWI0.MSTATUS & TWI_RXACK_bm))
    15ac:	80 91 05 09 	lds	r24, 0x0905	; 0x800905 <__TEXT_REGION_LENGTH__+0x7e0905>
    15b0:	84 ff       	sbrs	r24, 4
    15b2:	06 c0       	rjmp	.+12     	; 0x15c0 <i2cSendAddr+0x5e>
	return true;
}
 
bool i2cSendAddr(uint8_t ch, uint8_t dev_addr)
{
	bool     ret      = false;
    15b4:	80 e0       	ldi	r24, 0x00	; 0
    15b6:	05 c0       	rjmp	.+10     	; 0x15c2 <i2cSendAddr+0x60>
    15b8:	80 e0       	ldi	r24, 0x00	; 0
    15ba:	03 c0       	rjmp	.+6      	; 0x15c2 <i2cSendAddr+0x60>
		pre_time = millis();
		while (!(TWI0.MSTATUS & TWI_RIF_bm) && !(TWI0.MSTATUS & TWI_WIF_bm))
		{
			if(millis() - pre_time >= timeout)
			{
				return false;
    15bc:	80 e0       	ldi	r24, 0x00	; 0
    15be:	01 c0       	rjmp	.+2      	; 0x15c2 <i2cSendAddr+0x60>
			}
		}
		
		if(!(TWI0.MSTATUS & TWI_RXACK_bm))
		{
			ret = true;
    15c0:	81 e0       	ldi	r24, 0x01	; 1
		
		break;
	}
	
	return ret;
}
    15c2:	ff 90       	pop	r15
    15c4:	ef 90       	pop	r14
    15c6:	df 90       	pop	r13
    15c8:	cf 90       	pop	r12
    15ca:	08 95       	ret

000015cc <i2cSendData>:

bool i2cSendData(uint8_t ch, uint8_t data)
{
    15cc:	cf 92       	push	r12
    15ce:	df 92       	push	r13
    15d0:	ef 92       	push	r14
    15d2:	ff 92       	push	r15
	bool     ret      = false;
	uint32_t pre_time = 0;
	uint8_t  timeout  = 10;
	
	switch(ch)
    15d4:	81 11       	cpse	r24, r1
    15d6:	21 c0       	rjmp	.+66     	; 0x161a <i2cSendData+0x4e>
	{
		case _DEF_I2C1:
		TWI0.MSTATUS |= (TWI_RIF_bm | TWI_WIF_bm);
    15d8:	e0 e0       	ldi	r30, 0x00	; 0
    15da:	f9 e0       	ldi	r31, 0x09	; 9
    15dc:	85 81       	ldd	r24, Z+5	; 0x05
    15de:	80 6c       	ori	r24, 0xC0	; 192
    15e0:	85 83       	std	Z+5, r24	; 0x05
		TWI0.MDATA = data;
    15e2:	60 87       	std	Z+8, r22	; 0x08
		
		pre_time = millis();
    15e4:	0e 94 1c 02 	call	0x438	; 0x438 <millis>
    15e8:	6b 01       	movw	r12, r22
    15ea:	7c 01       	movw	r14, r24
		while (!(TWI0.MSTATUS & TWI_WIF_bm))
    15ec:	0c c0       	rjmp	.+24     	; 0x1606 <i2cSendData+0x3a>
		{
			if(millis() - pre_time >= timeout)
    15ee:	0e 94 1c 02 	call	0x438	; 0x438 <millis>
    15f2:	dc 01       	movw	r26, r24
    15f4:	cb 01       	movw	r24, r22
    15f6:	8c 19       	sub	r24, r12
    15f8:	9d 09       	sbc	r25, r13
    15fa:	ae 09       	sbc	r26, r14
    15fc:	bf 09       	sbc	r27, r15
    15fe:	0a 97       	sbiw	r24, 0x0a	; 10
    1600:	a1 05       	cpc	r26, r1
    1602:	b1 05       	cpc	r27, r1
    1604:	60 f4       	brcc	.+24     	; 0x161e <i2cSendData+0x52>
		case _DEF_I2C1:
		TWI0.MSTATUS |= (TWI_RIF_bm | TWI_WIF_bm);
		TWI0.MDATA = data;
		
		pre_time = millis();
		while (!(TWI0.MSTATUS & TWI_WIF_bm))
    1606:	80 91 05 09 	lds	r24, 0x0905	; 0x800905 <__TEXT_REGION_LENGTH__+0x7e0905>
    160a:	86 ff       	sbrs	r24, 6
    160c:	f0 cf       	rjmp	.-32     	; 0x15ee <i2cSendData+0x22>
			{
				return false;
			}
		}
		
		if(!(TWI0.MSTATUS & TWI_RXACK_bm))
    160e:	80 91 05 09 	lds	r24, 0x0905	; 0x800905 <__TEXT_REGION_LENGTH__+0x7e0905>
    1612:	84 ff       	sbrs	r24, 4
    1614:	06 c0       	rjmp	.+12     	; 0x1622 <i2cSendData+0x56>
	return ret;
}

bool i2cSendData(uint8_t ch, uint8_t data)
{
	bool     ret      = false;
    1616:	80 e0       	ldi	r24, 0x00	; 0
    1618:	05 c0       	rjmp	.+10     	; 0x1624 <i2cSendData+0x58>
    161a:	80 e0       	ldi	r24, 0x00	; 0
    161c:	03 c0       	rjmp	.+6      	; 0x1624 <i2cSendData+0x58>
		pre_time = millis();
		while (!(TWI0.MSTATUS & TWI_WIF_bm))
		{
			if(millis() - pre_time >= timeout)
			{
				return false;
    161e:	80 e0       	ldi	r24, 0x00	; 0
    1620:	01 c0       	rjmp	.+2      	; 0x1624 <i2cSendData+0x58>
			}
		}
		
		if(!(TWI0.MSTATUS & TWI_RXACK_bm))
		{
			ret = true;
    1622:	81 e0       	ldi	r24, 0x01	; 1
		
		break;
	}
	
	return ret;
}
    1624:	ff 90       	pop	r15
    1626:	ef 90       	pop	r14
    1628:	df 90       	pop	r13
    162a:	cf 90       	pop	r12
    162c:	08 95       	ret

0000162e <i2cEnd>:
	
	return true;	
}

bool i2cEnd(uint8_t ch)
{
    162e:	cf 92       	push	r12
    1630:	df 92       	push	r13
    1632:	ef 92       	push	r14
    1634:	ff 92       	push	r15
	uint32_t pre_time = 0;
	uint8_t  timeout  = 10;
	
	switch(ch)
    1636:	81 11       	cpse	r24, r1
    1638:	1f c0       	rjmp	.+62     	; 0x1678 <i2cEnd+0x4a>
	{
		case _DEF_I2C1:
		TWI0.MCTRLB &= 0xFC;
    163a:	e0 e0       	ldi	r30, 0x00	; 0
    163c:	f9 e0       	ldi	r31, 0x09	; 9
    163e:	84 81       	ldd	r24, Z+4	; 0x04
    1640:	8c 7f       	andi	r24, 0xFC	; 252
    1642:	84 83       	std	Z+4, r24	; 0x04
		TWI0.MCTRLB |= TWI_MCMD_STOP_gc;
    1644:	84 81       	ldd	r24, Z+4	; 0x04
    1646:	83 60       	ori	r24, 0x03	; 3
    1648:	84 83       	std	Z+4, r24	; 0x04
		
		pre_time = millis();
    164a:	0e 94 1c 02 	call	0x438	; 0x438 <millis>
    164e:	6b 01       	movw	r12, r22
    1650:	7c 01       	movw	r14, r24
		while(1)
		{
			if((TWI0.MSTATUS & TWI_BUSSTATE_BUSY_gc) != TWI_BUSSTATE_BUSY_gc)
    1652:	80 91 05 09 	lds	r24, 0x0905	; 0x800905 <__TEXT_REGION_LENGTH__+0x7e0905>
    1656:	83 70       	andi	r24, 0x03	; 3
    1658:	83 30       	cpi	r24, 0x03	; 3
    165a:	81 f4       	brne	.+32     	; 0x167c <i2cEnd+0x4e>
			{
				break;
			}
			if(millis() - pre_time >= timeout)
    165c:	0e 94 1c 02 	call	0x438	; 0x438 <millis>
    1660:	dc 01       	movw	r26, r24
    1662:	cb 01       	movw	r24, r22
    1664:	8c 19       	sub	r24, r12
    1666:	9d 09       	sbc	r25, r13
    1668:	ae 09       	sbc	r26, r14
    166a:	bf 09       	sbc	r27, r15
    166c:	0a 97       	sbiw	r24, 0x0a	; 10
    166e:	a1 05       	cpc	r26, r1
    1670:	b1 05       	cpc	r27, r1
    1672:	78 f3       	brcs	.-34     	; 0x1652 <i2cEnd+0x24>
			{
				return false;
    1674:	80 e0       	ldi	r24, 0x00	; 0
    1676:	03 c0       	rjmp	.+6      	; 0x167e <i2cEnd+0x50>
			}
		}
		break;
	}
	
	return true;
    1678:	81 e0       	ldi	r24, 0x01	; 1
    167a:	01 c0       	rjmp	.+2      	; 0x167e <i2cEnd+0x50>
    167c:	81 e0       	ldi	r24, 0x01	; 1
}
    167e:	ff 90       	pop	r15
    1680:	ef 90       	pop	r14
    1682:	df 90       	pop	r13
    1684:	cf 90       	pop	r12
    1686:	08 95       	ret

00001688 <i2cIsDeviceReady>:
	
	return ret;
}
 
bool i2cIsDeviceReady(uint8_t ch, uint8_t dev_addr)
{
    1688:	cf 93       	push	r28
    168a:	df 93       	push	r29
	
	switch(ch)
    168c:	81 11       	cpse	r24, r1
    168e:	11 c0       	rjmp	.+34     	; 0x16b2 <i2cIsDeviceReady+0x2a>
    1690:	d6 2f       	mov	r29, r22
    1692:	c8 2f       	mov	r28, r24
	{
		case _DEF_I2C1:
		if(i2cStart(ch) != true)
    1694:	0e 94 85 0a 	call	0x150a	; 0x150a <i2cStart>
    1698:	88 23       	and	r24, r24
    169a:	61 f0       	breq	.+24     	; 0x16b4 <i2cIsDeviceReady+0x2c>
		{
			return false;
		}
		
		if(i2cSendAddr(ch, (dev_addr << 1)) != true)
    169c:	6d 2f       	mov	r22, r29
    169e:	66 0f       	add	r22, r22
    16a0:	8c 2f       	mov	r24, r28
    16a2:	0e 94 b1 0a 	call	0x1562	; 0x1562 <i2cSendAddr>
    16a6:	88 23       	and	r24, r24
    16a8:	29 f0       	breq	.+10     	; 0x16b4 <i2cIsDeviceReady+0x2c>
		{
			return false;
		}
		
		if(i2cEnd(ch) != true)
    16aa:	8c 2f       	mov	r24, r28
    16ac:	0e 94 17 0b 	call	0x162e	; 0x162e <i2cEnd>
    16b0:	01 c0       	rjmp	.+2      	; 0x16b4 <i2cIsDeviceReady+0x2c>
			return false;
		}
		break;
	}
	
	return true;
    16b2:	81 e0       	ldi	r24, 0x01	; 1
}
    16b4:	df 91       	pop	r29
    16b6:	cf 91       	pop	r28
    16b8:	08 95       	ret

000016ba <cliI2c>:
}



void cliI2c(cli_args_t *args)
{
    16ba:	cf 93       	push	r28
    16bc:	df 93       	push	r29
	
	bool ret = false;

	if (args->argc == 1 && args->isStr(0, "scan") == true)
    16be:	dc 01       	movw	r26, r24
    16c0:	2d 91       	ld	r18, X+
    16c2:	3c 91       	ld	r19, X
    16c4:	11 97       	sbiw	r26, 0x01	; 1
    16c6:	21 30       	cpi	r18, 0x01	; 1
    16c8:	31 05       	cpc	r19, r1
    16ca:	31 f5       	brne	.+76     	; 0x1718 <cliI2c+0x5e>
    16cc:	1a 96       	adiw	r26, 0x0a	; 10
    16ce:	ed 91       	ld	r30, X+
    16d0:	fc 91       	ld	r31, X
    16d2:	1b 97       	sbiw	r26, 0x0b	; 11
    16d4:	6e e2       	ldi	r22, 0x2E	; 46
    16d6:	70 e4       	ldi	r23, 0x40	; 64
    16d8:	80 e0       	ldi	r24, 0x00	; 0
    16da:	09 95       	icall
    16dc:	81 11       	cpse	r24, r1
    16de:	15 c0       	rjmp	.+42     	; 0x170a <cliI2c+0x50>
    16e0:	1c c0       	rjmp	.+56     	; 0x171a <cliI2c+0x60>
	{
		for(int i=0x00; i<=0x7F; i++)
		{
			if(i2cIsDeviceReady(_DEF_I2C1, i) == true)
    16e2:	6c 2f       	mov	r22, r28
    16e4:	80 e0       	ldi	r24, 0x00	; 0
    16e6:	0e 94 44 0b 	call	0x1688	; 0x1688 <i2cIsDeviceReady>
    16ea:	88 23       	and	r24, r24
    16ec:	61 f0       	breq	.+24     	; 0x1706 <cliI2c+0x4c>
			{
				cliPrintf_P(PSTR("[OK] Addr : 0x%X\n"), i);
    16ee:	df 93       	push	r29
    16f0:	cf 93       	push	r28
    16f2:	82 e0       	ldi	r24, 0x02	; 2
    16f4:	92 e0       	ldi	r25, 0x02	; 2
    16f6:	9f 93       	push	r25
    16f8:	8f 93       	push	r24
    16fa:	0e 94 18 05 	call	0xa30	; 0xa30 <cliPrintf_P>
    16fe:	0f 90       	pop	r0
    1700:	0f 90       	pop	r0
    1702:	0f 90       	pop	r0
    1704:	0f 90       	pop	r0
	
	bool ret = false;

	if (args->argc == 1 && args->isStr(0, "scan") == true)
	{
		for(int i=0x00; i<=0x7F; i++)
    1706:	21 96       	adiw	r28, 0x01	; 1
    1708:	02 c0       	rjmp	.+4      	; 0x170e <cliI2c+0x54>
    170a:	c0 e0       	ldi	r28, 0x00	; 0
    170c:	d0 e0       	ldi	r29, 0x00	; 0
    170e:	c0 38       	cpi	r28, 0x80	; 128
    1710:	d1 05       	cpc	r29, r1
    1712:	3c f3       	brlt	.-50     	; 0x16e2 <cliI2c+0x28>
			{
				cliPrintf_P(PSTR("[OK] Addr : 0x%X\n"), i);
			}
		}
		
		ret = true;
    1714:	81 e0       	ldi	r24, 0x01	; 1
    1716:	01 c0       	rjmp	.+2      	; 0x171a <cliI2c+0x60>


void cliI2c(cli_args_t *args)
{
	
	bool ret = false;
    1718:	80 e0       	ldi	r24, 0x00	; 0
		}
		
		ret = true;
	}

	if (ret != true)
    171a:	81 11       	cpse	r24, r1
    171c:	08 c0       	rjmp	.+16     	; 0x172e <cliI2c+0x74>
	{
		cliPrintf_P(PSTR("i2c scan\n"));
    171e:	88 ef       	ldi	r24, 0xF8	; 248
    1720:	91 e0       	ldi	r25, 0x01	; 1
    1722:	9f 93       	push	r25
    1724:	8f 93       	push	r24
    1726:	0e 94 18 05 	call	0xa30	; 0xa30 <cliPrintf_P>
    172a:	0f 90       	pop	r0
    172c:	0f 90       	pop	r0
	}
}
    172e:	df 91       	pop	r29
    1730:	cf 91       	pop	r28
    1732:	08 95       	ret

00001734 <ledInit>:
	{
		*reg &= ~(1<<pgm_read_byte(&pin_tbl[ch].pin_num));
	}
	else
	{
		*reg |= (1<<pgm_read_byte(&pin_tbl[ch].pin_num));
    1734:	20 e0       	ldi	r18, 0x00	; 0
    1736:	30 e0       	ldi	r19, 0x00	; 0
    1738:	20 c0       	rjmp	.+64     	; 0x177a <ledInit+0x46>
    173a:	c9 01       	movw	r24, r18
    173c:	88 0f       	add	r24, r24
    173e:	99 1f       	adc	r25, r25
    1740:	fc 01       	movw	r30, r24
    1742:	e2 0f       	add	r30, r18
    1744:	f3 1f       	adc	r31, r19
    1746:	ee 0f       	add	r30, r30
    1748:	ff 1f       	adc	r31, r31
    174a:	ec 5e       	subi	r30, 0xEC	; 236
    174c:	fd 4f       	sbci	r31, 0xFD	; 253
    174e:	a5 91       	lpm	r26, Z+
    1750:	b4 91       	lpm	r27, Z
    1752:	fc 01       	movw	r30, r24
    1754:	e2 0f       	add	r30, r18
    1756:	f3 1f       	adc	r31, r19
    1758:	ee 0f       	add	r30, r30
    175a:	ff 1f       	adc	r31, r31
    175c:	e8 5e       	subi	r30, 0xE8	; 232
    175e:	fd 4f       	sbci	r31, 0xFD	; 253
    1760:	e4 91       	lpm	r30, Z
    1762:	81 e0       	ldi	r24, 0x01	; 1
    1764:	90 e0       	ldi	r25, 0x00	; 0
    1766:	02 c0       	rjmp	.+4      	; 0x176c <ledInit+0x38>
    1768:	88 0f       	add	r24, r24
    176a:	99 1f       	adc	r25, r25
    176c:	ea 95       	dec	r30
    176e:	e2 f7       	brpl	.-8      	; 0x1768 <ledInit+0x34>
    1770:	9c 91       	ld	r25, X
    1772:	89 2b       	or	r24, r25
    1774:	8c 93       	st	X, r24
    1776:	2f 5f       	subi	r18, 0xFF	; 255
    1778:	3f 4f       	sbci	r19, 0xFF	; 255
    177a:	12 16       	cp	r1, r18
    177c:	13 06       	cpc	r1, r19
    177e:	ec f6       	brge	.-70     	; 0x173a <ledInit+0x6>
    1780:	81 e0       	ldi	r24, 0x01	; 1
    1782:	08 95       	ret

00001784 <ledToggle>:
void ledToggle(uint8_t ch)
{
	volatile uint8_t *reg;


	reg = (volatile uint8_t *)( pgm_read_word(&pin_tbl[ch].out_port));
    1784:	90 e0       	ldi	r25, 0x00	; 0
    1786:	9c 01       	movw	r18, r24
    1788:	22 0f       	add	r18, r18
    178a:	33 1f       	adc	r19, r19
    178c:	f9 01       	movw	r30, r18
    178e:	e8 0f       	add	r30, r24
    1790:	f9 1f       	adc	r31, r25
    1792:	ee 0f       	add	r30, r30
    1794:	ff 1f       	adc	r31, r31
    1796:	ea 5e       	subi	r30, 0xEA	; 234
    1798:	fd 4f       	sbci	r31, 0xFD	; 253
    179a:	a5 91       	lpm	r26, Z+
    179c:	b4 91       	lpm	r27, Z

	*reg ^= (1<<pgm_read_byte(&pin_tbl[ch].pin_num));
    179e:	f9 01       	movw	r30, r18
    17a0:	e8 0f       	add	r30, r24
    17a2:	f9 1f       	adc	r31, r25
    17a4:	ee 0f       	add	r30, r30
    17a6:	ff 1f       	adc	r31, r31
    17a8:	e8 5e       	subi	r30, 0xE8	; 232
    17aa:	fd 4f       	sbci	r31, 0xFD	; 253
    17ac:	e4 91       	lpm	r30, Z
    17ae:	81 e0       	ldi	r24, 0x01	; 1
    17b0:	90 e0       	ldi	r25, 0x00	; 0
    17b2:	02 c0       	rjmp	.+4      	; 0x17b8 <ledToggle+0x34>
    17b4:	88 0f       	add	r24, r24
    17b6:	99 1f       	adc	r25, r25
    17b8:	ea 95       	dec	r30
    17ba:	e2 f7       	brpl	.-8      	; 0x17b4 <ledToggle+0x30>
    17bc:	9c 91       	ld	r25, X
    17be:	89 27       	eor	r24, r25
    17c0:	8c 93       	st	X, r24
    17c2:	08 95       	ret

000017c4 <uartRxHandler>:
}

uint32_t uartGetBaud(uint8_t ch)
{
	return uart_tbl[ch].baud;
}
    17c4:	cf 93       	push	r28
    17c6:	df 93       	push	r29
    17c8:	1f 92       	push	r1
    17ca:	cd b7       	in	r28, 0x3d	; 61
    17cc:	de b7       	in	r29, 0x3e	; 62
    17ce:	69 83       	std	Y+1, r22	; 0x01
    17d0:	28 2f       	mov	r18, r24
    17d2:	30 e0       	ldi	r19, 0x00	; 0
    17d4:	87 e5       	ldi	r24, 0x57	; 87
    17d6:	82 9f       	mul	r24, r18
    17d8:	f0 01       	movw	r30, r0
    17da:	83 9f       	mul	r24, r19
    17dc:	f0 0d       	add	r31, r0
    17de:	11 24       	eor	r1, r1
    17e0:	e8 56       	subi	r30, 0x68	; 104
    17e2:	fc 4b       	sbci	r31, 0xBC	; 188
    17e4:	86 81       	ldd	r24, Z+6	; 0x06
    17e6:	81 30       	cpi	r24, 0x01	; 1
    17e8:	89 f4       	brne	.+34     	; 0x180c <uartRxHandler+0x48>
    17ea:	47 e5       	ldi	r20, 0x57	; 87
    17ec:	42 9f       	mul	r20, r18
    17ee:	c0 01       	movw	r24, r0
    17f0:	43 9f       	mul	r20, r19
    17f2:	90 0d       	add	r25, r0
    17f4:	11 24       	eor	r1, r1
    17f6:	21 e0       	ldi	r18, 0x01	; 1
    17f8:	30 e0       	ldi	r19, 0x00	; 0
    17fa:	40 e0       	ldi	r20, 0x00	; 0
    17fc:	50 e0       	ldi	r21, 0x00	; 0
    17fe:	be 01       	movw	r22, r28
    1800:	6f 5f       	subi	r22, 0xFF	; 255
    1802:	7f 4f       	sbci	r23, 0xFF	; 255
    1804:	8f 51       	subi	r24, 0x1F	; 31
    1806:	9c 4b       	sbci	r25, 0xBC	; 188
    1808:	0e 94 41 02 	call	0x482	; 0x482 <qbufferWrite>
    180c:	0f 90       	pop	r0
    180e:	df 91       	pop	r29
    1810:	cf 91       	pop	r28
    1812:	08 95       	ret

00001814 <uartInit>:
    1814:	80 e0       	ldi	r24, 0x00	; 0
    1816:	0a c0       	rjmp	.+20     	; 0x182c <uartInit+0x18>
    1818:	97 e5       	ldi	r25, 0x57	; 87
    181a:	89 9f       	mul	r24, r25
    181c:	f0 01       	movw	r30, r0
    181e:	11 24       	eor	r1, r1
    1820:	e8 56       	subi	r30, 0x68	; 104
    1822:	fc 4b       	sbci	r31, 0xBC	; 188
    1824:	10 82       	st	Z, r1
    1826:	16 82       	std	Z+6, r1	; 0x06
    1828:	15 82       	std	Z+5, r1	; 0x05
    182a:	8f 5f       	subi	r24, 0xFF	; 255
    182c:	88 23       	and	r24, r24
    182e:	a1 f3       	breq	.-24     	; 0x1818 <uartInit+0x4>
    1830:	81 e0       	ldi	r24, 0x01	; 1
    1832:	08 95       	ret

00001834 <uartOpen>:
    1834:	cf 92       	push	r12
    1836:	df 92       	push	r13
    1838:	ef 92       	push	r14
    183a:	ff 92       	push	r15
    183c:	1f 93       	push	r17
    183e:	cf 93       	push	r28
    1840:	df 93       	push	r29
    1842:	81 11       	cpse	r24, r1
    1844:	40 c0       	rjmp	.+128    	; 0x18c6 <uartOpen+0x92>
    1846:	6a 01       	movw	r12, r20
    1848:	7b 01       	movw	r14, r22
    184a:	f8 94       	cli
    184c:	27 e5       	ldi	r18, 0x57	; 87
    184e:	82 9f       	mul	r24, r18
    1850:	c0 01       	movw	r24, r0
    1852:	11 24       	eor	r1, r1
    1854:	ec 01       	movw	r28, r24
    1856:	c8 56       	subi	r28, 0x68	; 104
    1858:	dc 4b       	sbci	r29, 0xBC	; 188
    185a:	11 e0       	ldi	r17, 0x01	; 1
    185c:	1e 83       	std	Y+6, r17	; 0x06
    185e:	49 83       	std	Y+1, r20	; 0x01
    1860:	5a 83       	std	Y+2, r21	; 0x02
    1862:	6b 83       	std	Y+3, r22	; 0x03
    1864:	7c 83       	std	Y+4, r23	; 0x04
    1866:	20 e2       	ldi	r18, 0x20	; 32
    1868:	38 e0       	ldi	r19, 0x08	; 8
    186a:	2f 83       	std	Y+7, r18	; 0x07
    186c:	38 87       	std	Y+8, r19	; 0x08
    186e:	bc 01       	movw	r22, r24
    1870:	6f 55       	subi	r22, 0x5F	; 95
    1872:	7c 4b       	sbci	r23, 0xBC	; 188
    1874:	20 e4       	ldi	r18, 0x40	; 64
    1876:	30 e0       	ldi	r19, 0x00	; 0
    1878:	40 e0       	ldi	r20, 0x00	; 0
    187a:	50 e0       	ldi	r21, 0x00	; 0
    187c:	8f 51       	subi	r24, 0x1F	; 31
    187e:	9c 4b       	sbci	r25, 0xBC	; 188
    1880:	0e 94 28 02 	call	0x450	; 0x450 <qbufferCreate>
    1884:	60 e0       	ldi	r22, 0x00	; 0
    1886:	78 ed       	ldi	r23, 0xD8	; 216
    1888:	88 eb       	ldi	r24, 0xB8	; 184
    188a:	95 e0       	ldi	r25, 0x05	; 5
    188c:	a7 01       	movw	r20, r14
    188e:	96 01       	movw	r18, r12
    1890:	0e 94 8b 0f 	call	0x1f16	; 0x1f16 <__udivmodsi4>
    1894:	ef 81       	ldd	r30, Y+7	; 0x07
    1896:	f8 85       	ldd	r31, Y+8	; 0x08
    1898:	20 87       	std	Z+8, r18	; 0x08
    189a:	31 87       	std	Z+9, r19	; 0x09
    189c:	ef 81       	ldd	r30, Y+7	; 0x07
    189e:	f8 85       	ldd	r31, Y+8	; 0x08
    18a0:	8b e0       	ldi	r24, 0x0B	; 11
    18a2:	87 83       	std	Z+7, r24	; 0x07
    18a4:	e0 e4       	ldi	r30, 0x40	; 64
    18a6:	f4 e0       	ldi	r31, 0x04	; 4
    18a8:	11 83       	std	Z+1, r17	; 0x01
    18aa:	82 e0       	ldi	r24, 0x02	; 2
    18ac:	82 83       	std	Z+2, r24	; 0x02
    18ae:	ef 81       	ldd	r30, Y+7	; 0x07
    18b0:	f8 85       	ldd	r31, Y+8	; 0x08
    18b2:	80 ec       	ldi	r24, 0xC0	; 192
    18b4:	86 83       	std	Z+6, r24	; 0x06
    18b6:	ef 81       	ldd	r30, Y+7	; 0x07
    18b8:	f8 85       	ldd	r31, Y+8	; 0x08
    18ba:	80 e8       	ldi	r24, 0x80	; 128
    18bc:	85 83       	std	Z+5, r24	; 0x05
    18be:	78 94       	sei
    18c0:	18 83       	st	Y, r17
    18c2:	81 e0       	ldi	r24, 0x01	; 1
    18c4:	01 c0       	rjmp	.+2      	; 0x18c8 <uartOpen+0x94>
    18c6:	80 e0       	ldi	r24, 0x00	; 0
    18c8:	df 91       	pop	r29
    18ca:	cf 91       	pop	r28
    18cc:	1f 91       	pop	r17
    18ce:	ff 90       	pop	r15
    18d0:	ef 90       	pop	r14
    18d2:	df 90       	pop	r13
    18d4:	cf 90       	pop	r12
    18d6:	08 95       	ret

000018d8 <uartAvailable>:
    18d8:	81 11       	cpse	r24, r1
    18da:	09 c0       	rjmp	.+18     	; 0x18ee <uartAvailable+0x16>
    18dc:	27 e5       	ldi	r18, 0x57	; 87
    18de:	82 9f       	mul	r24, r18
    18e0:	c0 01       	movw	r24, r0
    18e2:	11 24       	eor	r1, r1
    18e4:	8f 51       	subi	r24, 0x1F	; 31
    18e6:	9c 4b       	sbci	r25, 0xBC	; 188
    18e8:	0e 94 11 03 	call	0x622	; 0x622 <qbufferAvailable>
    18ec:	08 95       	ret
    18ee:	60 e0       	ldi	r22, 0x00	; 0
    18f0:	70 e0       	ldi	r23, 0x00	; 0
    18f2:	cb 01       	movw	r24, r22
    18f4:	08 95       	ret

000018f6 <uartWrite>:
    18f6:	4f 92       	push	r4
    18f8:	5f 92       	push	r5
    18fa:	6f 92       	push	r6
    18fc:	7f 92       	push	r7
    18fe:	8f 92       	push	r8
    1900:	9f 92       	push	r9
    1902:	af 92       	push	r10
    1904:	bf 92       	push	r11
    1906:	cf 92       	push	r12
    1908:	df 92       	push	r13
    190a:	ef 92       	push	r14
    190c:	ff 92       	push	r15
    190e:	0f 93       	push	r16
    1910:	1f 93       	push	r17
    1912:	cf 93       	push	r28
    1914:	df 93       	push	r29
    1916:	e7 e5       	ldi	r30, 0x57	; 87
    1918:	8e 9f       	mul	r24, r30
    191a:	c0 01       	movw	r24, r0
    191c:	11 24       	eor	r1, r1
    191e:	fc 01       	movw	r30, r24
    1920:	e8 56       	subi	r30, 0x68	; 104
    1922:	fc 4b       	sbci	r31, 0xBC	; 188
    1924:	c7 81       	ldd	r28, Z+7	; 0x07
    1926:	d0 85       	ldd	r29, Z+8	; 0x08
    1928:	86 81       	ldd	r24, Z+6	; 0x06
    192a:	81 30       	cpi	r24, 0x01	; 1
    192c:	59 f5       	brne	.+86     	; 0x1984 <uartWrite+0x8e>
    192e:	49 01       	movw	r8, r18
    1930:	5a 01       	movw	r10, r20
    1932:	8b 01       	movw	r16, r22
    1934:	0e 94 1c 02 	call	0x438	; 0x438 <millis>
    1938:	2b 01       	movw	r4, r22
    193a:	3c 01       	movw	r6, r24
    193c:	c1 2c       	mov	r12, r1
    193e:	d1 2c       	mov	r13, r1
    1940:	76 01       	movw	r14, r12
    1942:	1a c0       	rjmp	.+52     	; 0x1978 <uartWrite+0x82>
    1944:	8c 81       	ldd	r24, Y+4	; 0x04
    1946:	85 ff       	sbrs	r24, 5
    1948:	0a c0       	rjmp	.+20     	; 0x195e <uartWrite+0x68>
    194a:	f8 01       	movw	r30, r16
    194c:	ec 0d       	add	r30, r12
    194e:	fd 1d       	adc	r31, r13
    1950:	80 81       	ld	r24, Z
    1952:	8a 83       	std	Y+2, r24	; 0x02
    1954:	2f ef       	ldi	r18, 0xFF	; 255
    1956:	c2 1a       	sub	r12, r18
    1958:	d2 0a       	sbc	r13, r18
    195a:	e2 0a       	sbc	r14, r18
    195c:	f2 0a       	sbc	r15, r18
    195e:	0e 94 1c 02 	call	0x438	; 0x438 <millis>
    1962:	dc 01       	movw	r26, r24
    1964:	cb 01       	movw	r24, r22
    1966:	84 19       	sub	r24, r4
    1968:	95 09       	sbc	r25, r5
    196a:	a6 09       	sbc	r26, r6
    196c:	b7 09       	sbc	r27, r7
    196e:	84 3f       	cpi	r24, 0xF4	; 244
    1970:	91 40       	sbci	r25, 0x01	; 1
    1972:	a1 05       	cpc	r26, r1
    1974:	b1 05       	cpc	r27, r1
    1976:	48 f4       	brcc	.+18     	; 0x198a <uartWrite+0x94>
    1978:	c8 14       	cp	r12, r8
    197a:	d9 04       	cpc	r13, r9
    197c:	ea 04       	cpc	r14, r10
    197e:	fb 04       	cpc	r15, r11
    1980:	08 f3       	brcs	.-62     	; 0x1944 <uartWrite+0x4e>
    1982:	03 c0       	rjmp	.+6      	; 0x198a <uartWrite+0x94>
    1984:	c1 2c       	mov	r12, r1
    1986:	d1 2c       	mov	r13, r1
    1988:	76 01       	movw	r14, r12
    198a:	c7 01       	movw	r24, r14
    198c:	b6 01       	movw	r22, r12
    198e:	df 91       	pop	r29
    1990:	cf 91       	pop	r28
    1992:	1f 91       	pop	r17
    1994:	0f 91       	pop	r16
    1996:	ff 90       	pop	r15
    1998:	ef 90       	pop	r14
    199a:	df 90       	pop	r13
    199c:	cf 90       	pop	r12
    199e:	bf 90       	pop	r11
    19a0:	af 90       	pop	r10
    19a2:	9f 90       	pop	r9
    19a4:	8f 90       	pop	r8
    19a6:	7f 90       	pop	r7
    19a8:	6f 90       	pop	r6
    19aa:	5f 90       	pop	r5
    19ac:	4f 90       	pop	r4
    19ae:	08 95       	ret

000019b0 <uartRead>:
    19b0:	cf 93       	push	r28
    19b2:	df 93       	push	r29
    19b4:	1f 92       	push	r1
    19b6:	cd b7       	in	r28, 0x3d	; 61
    19b8:	de b7       	in	r29, 0x3e	; 62
    19ba:	19 82       	std	Y+1, r1	; 0x01
    19bc:	28 2f       	mov	r18, r24
    19be:	30 e0       	ldi	r19, 0x00	; 0
    19c0:	87 e5       	ldi	r24, 0x57	; 87
    19c2:	82 9f       	mul	r24, r18
    19c4:	f0 01       	movw	r30, r0
    19c6:	83 9f       	mul	r24, r19
    19c8:	f0 0d       	add	r31, r0
    19ca:	11 24       	eor	r1, r1
    19cc:	e8 56       	subi	r30, 0x68	; 104
    19ce:	fc 4b       	sbci	r31, 0xBC	; 188
    19d0:	86 81       	ldd	r24, Z+6	; 0x06
    19d2:	81 30       	cpi	r24, 0x01	; 1
    19d4:	89 f4       	brne	.+34     	; 0x19f8 <uartRead+0x48>
    19d6:	47 e5       	ldi	r20, 0x57	; 87
    19d8:	42 9f       	mul	r20, r18
    19da:	c0 01       	movw	r24, r0
    19dc:	43 9f       	mul	r20, r19
    19de:	90 0d       	add	r25, r0
    19e0:	11 24       	eor	r1, r1
    19e2:	21 e0       	ldi	r18, 0x01	; 1
    19e4:	30 e0       	ldi	r19, 0x00	; 0
    19e6:	40 e0       	ldi	r20, 0x00	; 0
    19e8:	50 e0       	ldi	r21, 0x00	; 0
    19ea:	be 01       	movw	r22, r28
    19ec:	6f 5f       	subi	r22, 0xFF	; 255
    19ee:	7f 4f       	sbci	r23, 0xFF	; 255
    19f0:	8f 51       	subi	r24, 0x1F	; 31
    19f2:	9c 4b       	sbci	r25, 0xBC	; 188
    19f4:	0e 94 a9 02 	call	0x552	; 0x552 <qbufferRead>
    19f8:	89 81       	ldd	r24, Y+1	; 0x01
    19fa:	0f 90       	pop	r0
    19fc:	df 91       	pop	r29
    19fe:	cf 91       	pop	r28
    1a00:	08 95       	ret

00001a02 <uartPrintf>:
    1a02:	cf 93       	push	r28
    1a04:	df 93       	push	r29
    1a06:	cd b7       	in	r28, 0x3d	; 61
    1a08:	de b7       	in	r29, 0x3e	; 62
    1a0a:	c0 58       	subi	r28, 0x80	; 128
    1a0c:	d1 09       	sbc	r29, r1
    1a0e:	cd bf       	out	0x3d, r28	; 61
    1a10:	de bf       	out	0x3e, r29	; 62
    1a12:	9e 01       	movw	r18, r28
    1a14:	28 57       	subi	r18, 0x78	; 120
    1a16:	3f 4f       	sbci	r19, 0xFF	; 255
    1a18:	ca 57       	subi	r28, 0x7A	; 122
    1a1a:	df 4f       	sbci	r29, 0xFF	; 255
    1a1c:	48 81       	ld	r20, Y
    1a1e:	59 81       	ldd	r21, Y+1	; 0x01
    1a20:	c6 58       	subi	r28, 0x86	; 134
    1a22:	d0 40       	sbci	r29, 0x00	; 0
    1a24:	60 e8       	ldi	r22, 0x80	; 128
    1a26:	70 e0       	ldi	r23, 0x00	; 0
    1a28:	ce 01       	movw	r24, r28
    1a2a:	01 96       	adiw	r24, 0x01	; 1
    1a2c:	0e 94 a8 12 	call	0x2550	; 0x2550 <vsnprintf>
    1a30:	9c 01       	movw	r18, r24
    1a32:	99 0f       	add	r25, r25
    1a34:	44 0b       	sbc	r20, r20
    1a36:	55 0b       	sbc	r21, r21
    1a38:	be 01       	movw	r22, r28
    1a3a:	6f 5f       	subi	r22, 0xFF	; 255
    1a3c:	7f 4f       	sbci	r23, 0xFF	; 255
    1a3e:	cb 57       	subi	r28, 0x7B	; 123
    1a40:	df 4f       	sbci	r29, 0xFF	; 255
    1a42:	88 81       	ld	r24, Y
    1a44:	c5 58       	subi	r28, 0x85	; 133
    1a46:	d0 40       	sbci	r29, 0x00	; 0
    1a48:	0e 94 7b 0c 	call	0x18f6	; 0x18f6 <uartWrite>
    1a4c:	c0 58       	subi	r28, 0x80	; 128
    1a4e:	df 4f       	sbci	r29, 0xFF	; 255
    1a50:	cd bf       	out	0x3d, r28	; 61
    1a52:	de bf       	out	0x3e, r29	; 62
    1a54:	df 91       	pop	r29
    1a56:	cf 91       	pop	r28
    1a58:	08 95       	ret

00001a5a <__vector_31>:
		qbufferWrite(&p_uart->qbuffer_rx, &rx_data, 1);
	}
}

ISR(USART1_RXC_vect, ISR_NOBLOCK)
{
    1a5a:	78 94       	sei
    1a5c:	1f 92       	push	r1
    1a5e:	0f 92       	push	r0
    1a60:	0f b6       	in	r0, 0x3f	; 63
    1a62:	0f 92       	push	r0
    1a64:	11 24       	eor	r1, r1
    1a66:	0b b6       	in	r0, 0x3b	; 59
    1a68:	0f 92       	push	r0
    1a6a:	2f 93       	push	r18
    1a6c:	3f 93       	push	r19
    1a6e:	4f 93       	push	r20
    1a70:	5f 93       	push	r21
    1a72:	6f 93       	push	r22
    1a74:	7f 93       	push	r23
    1a76:	8f 93       	push	r24
    1a78:	9f 93       	push	r25
    1a7a:	af 93       	push	r26
    1a7c:	bf 93       	push	r27
    1a7e:	ef 93       	push	r30
    1a80:	ff 93       	push	r31
	uartRxHandler(_DEF_UART1, USART1.RXDATAL);
    1a82:	60 91 20 08 	lds	r22, 0x0820	; 0x800820 <__TEXT_REGION_LENGTH__+0x7e0820>
    1a86:	80 e0       	ldi	r24, 0x00	; 0
    1a88:	0e 94 e2 0b 	call	0x17c4	; 0x17c4 <uartRxHandler>
}
    1a8c:	ff 91       	pop	r31
    1a8e:	ef 91       	pop	r30
    1a90:	bf 91       	pop	r27
    1a92:	af 91       	pop	r26
    1a94:	9f 91       	pop	r25
    1a96:	8f 91       	pop	r24
    1a98:	7f 91       	pop	r23
    1a9a:	6f 91       	pop	r22
    1a9c:	5f 91       	pop	r21
    1a9e:	4f 91       	pop	r20
    1aa0:	3f 91       	pop	r19
    1aa2:	2f 91       	pop	r18
    1aa4:	0f 90       	pop	r0
    1aa6:	0b be       	out	0x3b, r0	; 59
    1aa8:	0f 90       	pop	r0
    1aaa:	0f be       	out	0x3f, r0	; 63
    1aac:	0f 90       	pop	r0
    1aae:	1f 90       	pop	r1
    1ab0:	18 95       	reti

00001ab2 <hwInit>:
#include "hw.h"


bool hwInit(void)
{
	bspInit();
    1ab2:	0e 94 fa 01 	call	0x3f4	; 0x3f4 <bspInit>
	
	ledInit();
    1ab6:	0e 94 9a 0b 	call	0x1734	; 0x1734 <ledInit>
	uartInit();
    1aba:	0e 94 0a 0c 	call	0x1814	; 0x1814 <uartInit>
	cliInit();
    1abe:	0e 94 0e 0a 	call	0x141c	; 0x141c <cliInit>
	i2cInit();
    1ac2:	0e 94 4a 0a 	call	0x1494	; 0x1494 <i2cInit>
	
	return true;
    1ac6:	81 e0       	ldi	r24, 0x01	; 1
    1ac8:	08 95       	ret

00001aca <main>:



int main(void)
{
	hwInit();
    1aca:	0e 94 59 0d 	call	0x1ab2	; 0x1ab2 <hwInit>
	apInit();
    1ace:	0e 94 4e 01 	call	0x29c	; 0x29c <apInit>

	apMain();
    1ad2:	0e 94 5d 01 	call	0x2ba	; 0x2ba <apMain>
	
	return 0;
}
    1ad6:	80 e0       	ldi	r24, 0x00	; 0
    1ad8:	90 e0       	ldi	r25, 0x00	; 0
    1ada:	08 95       	ret

00001adc <__subsf3>:
    1adc:	50 58       	subi	r21, 0x80	; 128

00001ade <__addsf3>:
    1ade:	bb 27       	eor	r27, r27
    1ae0:	aa 27       	eor	r26, r26
    1ae2:	0e 94 86 0d 	call	0x1b0c	; 0x1b0c <__addsf3x>
    1ae6:	0c 94 d0 0e 	jmp	0x1da0	; 0x1da0 <__fp_round>
    1aea:	0e 94 c2 0e 	call	0x1d84	; 0x1d84 <__fp_pscA>
    1aee:	38 f0       	brcs	.+14     	; 0x1afe <__addsf3+0x20>
    1af0:	0e 94 c9 0e 	call	0x1d92	; 0x1d92 <__fp_pscB>
    1af4:	20 f0       	brcs	.+8      	; 0x1afe <__addsf3+0x20>
    1af6:	39 f4       	brne	.+14     	; 0x1b06 <__addsf3+0x28>
    1af8:	9f 3f       	cpi	r25, 0xFF	; 255
    1afa:	19 f4       	brne	.+6      	; 0x1b02 <__addsf3+0x24>
    1afc:	26 f4       	brtc	.+8      	; 0x1b06 <__addsf3+0x28>
    1afe:	0c 94 bf 0e 	jmp	0x1d7e	; 0x1d7e <__fp_nan>
    1b02:	0e f4       	brtc	.+2      	; 0x1b06 <__addsf3+0x28>
    1b04:	e0 95       	com	r30
    1b06:	e7 fb       	bst	r30, 7
    1b08:	0c 94 b9 0e 	jmp	0x1d72	; 0x1d72 <__fp_inf>

00001b0c <__addsf3x>:
    1b0c:	e9 2f       	mov	r30, r25
    1b0e:	0e 94 e1 0e 	call	0x1dc2	; 0x1dc2 <__fp_split3>
    1b12:	58 f3       	brcs	.-42     	; 0x1aea <__addsf3+0xc>
    1b14:	ba 17       	cp	r27, r26
    1b16:	62 07       	cpc	r22, r18
    1b18:	73 07       	cpc	r23, r19
    1b1a:	84 07       	cpc	r24, r20
    1b1c:	95 07       	cpc	r25, r21
    1b1e:	20 f0       	brcs	.+8      	; 0x1b28 <__addsf3x+0x1c>
    1b20:	79 f4       	brne	.+30     	; 0x1b40 <__addsf3x+0x34>
    1b22:	a6 f5       	brtc	.+104    	; 0x1b8c <__addsf3x+0x80>
    1b24:	0c 94 03 0f 	jmp	0x1e06	; 0x1e06 <__fp_zero>
    1b28:	0e f4       	brtc	.+2      	; 0x1b2c <__addsf3x+0x20>
    1b2a:	e0 95       	com	r30
    1b2c:	0b 2e       	mov	r0, r27
    1b2e:	ba 2f       	mov	r27, r26
    1b30:	a0 2d       	mov	r26, r0
    1b32:	0b 01       	movw	r0, r22
    1b34:	b9 01       	movw	r22, r18
    1b36:	90 01       	movw	r18, r0
    1b38:	0c 01       	movw	r0, r24
    1b3a:	ca 01       	movw	r24, r20
    1b3c:	a0 01       	movw	r20, r0
    1b3e:	11 24       	eor	r1, r1
    1b40:	ff 27       	eor	r31, r31
    1b42:	59 1b       	sub	r21, r25
    1b44:	99 f0       	breq	.+38     	; 0x1b6c <__addsf3x+0x60>
    1b46:	59 3f       	cpi	r21, 0xF9	; 249
    1b48:	50 f4       	brcc	.+20     	; 0x1b5e <__addsf3x+0x52>
    1b4a:	50 3e       	cpi	r21, 0xE0	; 224
    1b4c:	68 f1       	brcs	.+90     	; 0x1ba8 <__addsf3x+0x9c>
    1b4e:	1a 16       	cp	r1, r26
    1b50:	f0 40       	sbci	r31, 0x00	; 0
    1b52:	a2 2f       	mov	r26, r18
    1b54:	23 2f       	mov	r18, r19
    1b56:	34 2f       	mov	r19, r20
    1b58:	44 27       	eor	r20, r20
    1b5a:	58 5f       	subi	r21, 0xF8	; 248
    1b5c:	f3 cf       	rjmp	.-26     	; 0x1b44 <__addsf3x+0x38>
    1b5e:	46 95       	lsr	r20
    1b60:	37 95       	ror	r19
    1b62:	27 95       	ror	r18
    1b64:	a7 95       	ror	r26
    1b66:	f0 40       	sbci	r31, 0x00	; 0
    1b68:	53 95       	inc	r21
    1b6a:	c9 f7       	brne	.-14     	; 0x1b5e <__addsf3x+0x52>
    1b6c:	7e f4       	brtc	.+30     	; 0x1b8c <__addsf3x+0x80>
    1b6e:	1f 16       	cp	r1, r31
    1b70:	ba 0b       	sbc	r27, r26
    1b72:	62 0b       	sbc	r22, r18
    1b74:	73 0b       	sbc	r23, r19
    1b76:	84 0b       	sbc	r24, r20
    1b78:	ba f0       	brmi	.+46     	; 0x1ba8 <__addsf3x+0x9c>
    1b7a:	91 50       	subi	r25, 0x01	; 1
    1b7c:	a1 f0       	breq	.+40     	; 0x1ba6 <__addsf3x+0x9a>
    1b7e:	ff 0f       	add	r31, r31
    1b80:	bb 1f       	adc	r27, r27
    1b82:	66 1f       	adc	r22, r22
    1b84:	77 1f       	adc	r23, r23
    1b86:	88 1f       	adc	r24, r24
    1b88:	c2 f7       	brpl	.-16     	; 0x1b7a <__addsf3x+0x6e>
    1b8a:	0e c0       	rjmp	.+28     	; 0x1ba8 <__addsf3x+0x9c>
    1b8c:	ba 0f       	add	r27, r26
    1b8e:	62 1f       	adc	r22, r18
    1b90:	73 1f       	adc	r23, r19
    1b92:	84 1f       	adc	r24, r20
    1b94:	48 f4       	brcc	.+18     	; 0x1ba8 <__addsf3x+0x9c>
    1b96:	87 95       	ror	r24
    1b98:	77 95       	ror	r23
    1b9a:	67 95       	ror	r22
    1b9c:	b7 95       	ror	r27
    1b9e:	f7 95       	ror	r31
    1ba0:	9e 3f       	cpi	r25, 0xFE	; 254
    1ba2:	08 f0       	brcs	.+2      	; 0x1ba6 <__addsf3x+0x9a>
    1ba4:	b0 cf       	rjmp	.-160    	; 0x1b06 <__addsf3+0x28>
    1ba6:	93 95       	inc	r25
    1ba8:	88 0f       	add	r24, r24
    1baa:	08 f0       	brcs	.+2      	; 0x1bae <__addsf3x+0xa2>
    1bac:	99 27       	eor	r25, r25
    1bae:	ee 0f       	add	r30, r30
    1bb0:	97 95       	ror	r25
    1bb2:	87 95       	ror	r24
    1bb4:	08 95       	ret

00001bb6 <__divsf3>:
    1bb6:	0e 94 ef 0d 	call	0x1bde	; 0x1bde <__divsf3x>
    1bba:	0c 94 d0 0e 	jmp	0x1da0	; 0x1da0 <__fp_round>
    1bbe:	0e 94 c9 0e 	call	0x1d92	; 0x1d92 <__fp_pscB>
    1bc2:	58 f0       	brcs	.+22     	; 0x1bda <__divsf3+0x24>
    1bc4:	0e 94 c2 0e 	call	0x1d84	; 0x1d84 <__fp_pscA>
    1bc8:	40 f0       	brcs	.+16     	; 0x1bda <__divsf3+0x24>
    1bca:	29 f4       	brne	.+10     	; 0x1bd6 <__divsf3+0x20>
    1bcc:	5f 3f       	cpi	r21, 0xFF	; 255
    1bce:	29 f0       	breq	.+10     	; 0x1bda <__divsf3+0x24>
    1bd0:	0c 94 b9 0e 	jmp	0x1d72	; 0x1d72 <__fp_inf>
    1bd4:	51 11       	cpse	r21, r1
    1bd6:	0c 94 04 0f 	jmp	0x1e08	; 0x1e08 <__fp_szero>
    1bda:	0c 94 bf 0e 	jmp	0x1d7e	; 0x1d7e <__fp_nan>

00001bde <__divsf3x>:
    1bde:	0e 94 e1 0e 	call	0x1dc2	; 0x1dc2 <__fp_split3>
    1be2:	68 f3       	brcs	.-38     	; 0x1bbe <__divsf3+0x8>

00001be4 <__divsf3_pse>:
    1be4:	99 23       	and	r25, r25
    1be6:	b1 f3       	breq	.-20     	; 0x1bd4 <__divsf3+0x1e>
    1be8:	55 23       	and	r21, r21
    1bea:	91 f3       	breq	.-28     	; 0x1bd0 <__divsf3+0x1a>
    1bec:	95 1b       	sub	r25, r21
    1bee:	55 0b       	sbc	r21, r21
    1bf0:	bb 27       	eor	r27, r27
    1bf2:	aa 27       	eor	r26, r26
    1bf4:	62 17       	cp	r22, r18
    1bf6:	73 07       	cpc	r23, r19
    1bf8:	84 07       	cpc	r24, r20
    1bfa:	38 f0       	brcs	.+14     	; 0x1c0a <__divsf3_pse+0x26>
    1bfc:	9f 5f       	subi	r25, 0xFF	; 255
    1bfe:	5f 4f       	sbci	r21, 0xFF	; 255
    1c00:	22 0f       	add	r18, r18
    1c02:	33 1f       	adc	r19, r19
    1c04:	44 1f       	adc	r20, r20
    1c06:	aa 1f       	adc	r26, r26
    1c08:	a9 f3       	breq	.-22     	; 0x1bf4 <__divsf3_pse+0x10>
    1c0a:	35 d0       	rcall	.+106    	; 0x1c76 <__divsf3_pse+0x92>
    1c0c:	0e 2e       	mov	r0, r30
    1c0e:	3a f0       	brmi	.+14     	; 0x1c1e <__divsf3_pse+0x3a>
    1c10:	e0 e8       	ldi	r30, 0x80	; 128
    1c12:	32 d0       	rcall	.+100    	; 0x1c78 <__divsf3_pse+0x94>
    1c14:	91 50       	subi	r25, 0x01	; 1
    1c16:	50 40       	sbci	r21, 0x00	; 0
    1c18:	e6 95       	lsr	r30
    1c1a:	00 1c       	adc	r0, r0
    1c1c:	ca f7       	brpl	.-14     	; 0x1c10 <__divsf3_pse+0x2c>
    1c1e:	2b d0       	rcall	.+86     	; 0x1c76 <__divsf3_pse+0x92>
    1c20:	fe 2f       	mov	r31, r30
    1c22:	29 d0       	rcall	.+82     	; 0x1c76 <__divsf3_pse+0x92>
    1c24:	66 0f       	add	r22, r22
    1c26:	77 1f       	adc	r23, r23
    1c28:	88 1f       	adc	r24, r24
    1c2a:	bb 1f       	adc	r27, r27
    1c2c:	26 17       	cp	r18, r22
    1c2e:	37 07       	cpc	r19, r23
    1c30:	48 07       	cpc	r20, r24
    1c32:	ab 07       	cpc	r26, r27
    1c34:	b0 e8       	ldi	r27, 0x80	; 128
    1c36:	09 f0       	breq	.+2      	; 0x1c3a <__divsf3_pse+0x56>
    1c38:	bb 0b       	sbc	r27, r27
    1c3a:	80 2d       	mov	r24, r0
    1c3c:	bf 01       	movw	r22, r30
    1c3e:	ff 27       	eor	r31, r31
    1c40:	93 58       	subi	r25, 0x83	; 131
    1c42:	5f 4f       	sbci	r21, 0xFF	; 255
    1c44:	3a f0       	brmi	.+14     	; 0x1c54 <__divsf3_pse+0x70>
    1c46:	9e 3f       	cpi	r25, 0xFE	; 254
    1c48:	51 05       	cpc	r21, r1
    1c4a:	78 f0       	brcs	.+30     	; 0x1c6a <__divsf3_pse+0x86>
    1c4c:	0c 94 b9 0e 	jmp	0x1d72	; 0x1d72 <__fp_inf>
    1c50:	0c 94 04 0f 	jmp	0x1e08	; 0x1e08 <__fp_szero>
    1c54:	5f 3f       	cpi	r21, 0xFF	; 255
    1c56:	e4 f3       	brlt	.-8      	; 0x1c50 <__divsf3_pse+0x6c>
    1c58:	98 3e       	cpi	r25, 0xE8	; 232
    1c5a:	d4 f3       	brlt	.-12     	; 0x1c50 <__divsf3_pse+0x6c>
    1c5c:	86 95       	lsr	r24
    1c5e:	77 95       	ror	r23
    1c60:	67 95       	ror	r22
    1c62:	b7 95       	ror	r27
    1c64:	f7 95       	ror	r31
    1c66:	9f 5f       	subi	r25, 0xFF	; 255
    1c68:	c9 f7       	brne	.-14     	; 0x1c5c <__divsf3_pse+0x78>
    1c6a:	88 0f       	add	r24, r24
    1c6c:	91 1d       	adc	r25, r1
    1c6e:	96 95       	lsr	r25
    1c70:	87 95       	ror	r24
    1c72:	97 f9       	bld	r25, 7
    1c74:	08 95       	ret
    1c76:	e1 e0       	ldi	r30, 0x01	; 1
    1c78:	66 0f       	add	r22, r22
    1c7a:	77 1f       	adc	r23, r23
    1c7c:	88 1f       	adc	r24, r24
    1c7e:	bb 1f       	adc	r27, r27
    1c80:	62 17       	cp	r22, r18
    1c82:	73 07       	cpc	r23, r19
    1c84:	84 07       	cpc	r24, r20
    1c86:	ba 07       	cpc	r27, r26
    1c88:	20 f0       	brcs	.+8      	; 0x1c92 <__divsf3_pse+0xae>
    1c8a:	62 1b       	sub	r22, r18
    1c8c:	73 0b       	sbc	r23, r19
    1c8e:	84 0b       	sbc	r24, r20
    1c90:	ba 0b       	sbc	r27, r26
    1c92:	ee 1f       	adc	r30, r30
    1c94:	88 f7       	brcc	.-30     	; 0x1c78 <__divsf3_pse+0x94>
    1c96:	e0 95       	com	r30
    1c98:	08 95       	ret

00001c9a <__fixunssfsi>:
    1c9a:	0e 94 e9 0e 	call	0x1dd2	; 0x1dd2 <__fp_splitA>
    1c9e:	88 f0       	brcs	.+34     	; 0x1cc2 <__fixunssfsi+0x28>
    1ca0:	9f 57       	subi	r25, 0x7F	; 127
    1ca2:	98 f0       	brcs	.+38     	; 0x1cca <__fixunssfsi+0x30>
    1ca4:	b9 2f       	mov	r27, r25
    1ca6:	99 27       	eor	r25, r25
    1ca8:	b7 51       	subi	r27, 0x17	; 23
    1caa:	b0 f0       	brcs	.+44     	; 0x1cd8 <__fixunssfsi+0x3e>
    1cac:	e1 f0       	breq	.+56     	; 0x1ce6 <__fixunssfsi+0x4c>
    1cae:	66 0f       	add	r22, r22
    1cb0:	77 1f       	adc	r23, r23
    1cb2:	88 1f       	adc	r24, r24
    1cb4:	99 1f       	adc	r25, r25
    1cb6:	1a f0       	brmi	.+6      	; 0x1cbe <__fixunssfsi+0x24>
    1cb8:	ba 95       	dec	r27
    1cba:	c9 f7       	brne	.-14     	; 0x1cae <__fixunssfsi+0x14>
    1cbc:	14 c0       	rjmp	.+40     	; 0x1ce6 <__fixunssfsi+0x4c>
    1cbe:	b1 30       	cpi	r27, 0x01	; 1
    1cc0:	91 f0       	breq	.+36     	; 0x1ce6 <__fixunssfsi+0x4c>
    1cc2:	0e 94 03 0f 	call	0x1e06	; 0x1e06 <__fp_zero>
    1cc6:	b1 e0       	ldi	r27, 0x01	; 1
    1cc8:	08 95       	ret
    1cca:	0c 94 03 0f 	jmp	0x1e06	; 0x1e06 <__fp_zero>
    1cce:	67 2f       	mov	r22, r23
    1cd0:	78 2f       	mov	r23, r24
    1cd2:	88 27       	eor	r24, r24
    1cd4:	b8 5f       	subi	r27, 0xF8	; 248
    1cd6:	39 f0       	breq	.+14     	; 0x1ce6 <__fixunssfsi+0x4c>
    1cd8:	b9 3f       	cpi	r27, 0xF9	; 249
    1cda:	cc f3       	brlt	.-14     	; 0x1cce <__fixunssfsi+0x34>
    1cdc:	86 95       	lsr	r24
    1cde:	77 95       	ror	r23
    1ce0:	67 95       	ror	r22
    1ce2:	b3 95       	inc	r27
    1ce4:	d9 f7       	brne	.-10     	; 0x1cdc <__fixunssfsi+0x42>
    1ce6:	3e f4       	brtc	.+14     	; 0x1cf6 <__fixunssfsi+0x5c>
    1ce8:	90 95       	com	r25
    1cea:	80 95       	com	r24
    1cec:	70 95       	com	r23
    1cee:	61 95       	neg	r22
    1cf0:	7f 4f       	sbci	r23, 0xFF	; 255
    1cf2:	8f 4f       	sbci	r24, 0xFF	; 255
    1cf4:	9f 4f       	sbci	r25, 0xFF	; 255
    1cf6:	08 95       	ret

00001cf8 <__floatunsisf>:
    1cf8:	e8 94       	clt
    1cfa:	09 c0       	rjmp	.+18     	; 0x1d0e <__floatsisf+0x12>

00001cfc <__floatsisf>:
    1cfc:	97 fb       	bst	r25, 7
    1cfe:	3e f4       	brtc	.+14     	; 0x1d0e <__floatsisf+0x12>
    1d00:	90 95       	com	r25
    1d02:	80 95       	com	r24
    1d04:	70 95       	com	r23
    1d06:	61 95       	neg	r22
    1d08:	7f 4f       	sbci	r23, 0xFF	; 255
    1d0a:	8f 4f       	sbci	r24, 0xFF	; 255
    1d0c:	9f 4f       	sbci	r25, 0xFF	; 255
    1d0e:	99 23       	and	r25, r25
    1d10:	a9 f0       	breq	.+42     	; 0x1d3c <__floatsisf+0x40>
    1d12:	f9 2f       	mov	r31, r25
    1d14:	96 e9       	ldi	r25, 0x96	; 150
    1d16:	bb 27       	eor	r27, r27
    1d18:	93 95       	inc	r25
    1d1a:	f6 95       	lsr	r31
    1d1c:	87 95       	ror	r24
    1d1e:	77 95       	ror	r23
    1d20:	67 95       	ror	r22
    1d22:	b7 95       	ror	r27
    1d24:	f1 11       	cpse	r31, r1
    1d26:	f8 cf       	rjmp	.-16     	; 0x1d18 <__floatsisf+0x1c>
    1d28:	fa f4       	brpl	.+62     	; 0x1d68 <__floatsisf+0x6c>
    1d2a:	bb 0f       	add	r27, r27
    1d2c:	11 f4       	brne	.+4      	; 0x1d32 <__floatsisf+0x36>
    1d2e:	60 ff       	sbrs	r22, 0
    1d30:	1b c0       	rjmp	.+54     	; 0x1d68 <__floatsisf+0x6c>
    1d32:	6f 5f       	subi	r22, 0xFF	; 255
    1d34:	7f 4f       	sbci	r23, 0xFF	; 255
    1d36:	8f 4f       	sbci	r24, 0xFF	; 255
    1d38:	9f 4f       	sbci	r25, 0xFF	; 255
    1d3a:	16 c0       	rjmp	.+44     	; 0x1d68 <__floatsisf+0x6c>
    1d3c:	88 23       	and	r24, r24
    1d3e:	11 f0       	breq	.+4      	; 0x1d44 <__floatsisf+0x48>
    1d40:	96 e9       	ldi	r25, 0x96	; 150
    1d42:	11 c0       	rjmp	.+34     	; 0x1d66 <__floatsisf+0x6a>
    1d44:	77 23       	and	r23, r23
    1d46:	21 f0       	breq	.+8      	; 0x1d50 <__floatsisf+0x54>
    1d48:	9e e8       	ldi	r25, 0x8E	; 142
    1d4a:	87 2f       	mov	r24, r23
    1d4c:	76 2f       	mov	r23, r22
    1d4e:	05 c0       	rjmp	.+10     	; 0x1d5a <__floatsisf+0x5e>
    1d50:	66 23       	and	r22, r22
    1d52:	71 f0       	breq	.+28     	; 0x1d70 <__floatsisf+0x74>
    1d54:	96 e8       	ldi	r25, 0x86	; 134
    1d56:	86 2f       	mov	r24, r22
    1d58:	70 e0       	ldi	r23, 0x00	; 0
    1d5a:	60 e0       	ldi	r22, 0x00	; 0
    1d5c:	2a f0       	brmi	.+10     	; 0x1d68 <__floatsisf+0x6c>
    1d5e:	9a 95       	dec	r25
    1d60:	66 0f       	add	r22, r22
    1d62:	77 1f       	adc	r23, r23
    1d64:	88 1f       	adc	r24, r24
    1d66:	da f7       	brpl	.-10     	; 0x1d5e <__floatsisf+0x62>
    1d68:	88 0f       	add	r24, r24
    1d6a:	96 95       	lsr	r25
    1d6c:	87 95       	ror	r24
    1d6e:	97 f9       	bld	r25, 7
    1d70:	08 95       	ret

00001d72 <__fp_inf>:
    1d72:	97 f9       	bld	r25, 7
    1d74:	9f 67       	ori	r25, 0x7F	; 127
    1d76:	80 e8       	ldi	r24, 0x80	; 128
    1d78:	70 e0       	ldi	r23, 0x00	; 0
    1d7a:	60 e0       	ldi	r22, 0x00	; 0
    1d7c:	08 95       	ret

00001d7e <__fp_nan>:
    1d7e:	9f ef       	ldi	r25, 0xFF	; 255
    1d80:	80 ec       	ldi	r24, 0xC0	; 192
    1d82:	08 95       	ret

00001d84 <__fp_pscA>:
    1d84:	00 24       	eor	r0, r0
    1d86:	0a 94       	dec	r0
    1d88:	16 16       	cp	r1, r22
    1d8a:	17 06       	cpc	r1, r23
    1d8c:	18 06       	cpc	r1, r24
    1d8e:	09 06       	cpc	r0, r25
    1d90:	08 95       	ret

00001d92 <__fp_pscB>:
    1d92:	00 24       	eor	r0, r0
    1d94:	0a 94       	dec	r0
    1d96:	12 16       	cp	r1, r18
    1d98:	13 06       	cpc	r1, r19
    1d9a:	14 06       	cpc	r1, r20
    1d9c:	05 06       	cpc	r0, r21
    1d9e:	08 95       	ret

00001da0 <__fp_round>:
    1da0:	09 2e       	mov	r0, r25
    1da2:	03 94       	inc	r0
    1da4:	00 0c       	add	r0, r0
    1da6:	11 f4       	brne	.+4      	; 0x1dac <__fp_round+0xc>
    1da8:	88 23       	and	r24, r24
    1daa:	52 f0       	brmi	.+20     	; 0x1dc0 <__fp_round+0x20>
    1dac:	bb 0f       	add	r27, r27
    1dae:	40 f4       	brcc	.+16     	; 0x1dc0 <__fp_round+0x20>
    1db0:	bf 2b       	or	r27, r31
    1db2:	11 f4       	brne	.+4      	; 0x1db8 <__fp_round+0x18>
    1db4:	60 ff       	sbrs	r22, 0
    1db6:	04 c0       	rjmp	.+8      	; 0x1dc0 <__fp_round+0x20>
    1db8:	6f 5f       	subi	r22, 0xFF	; 255
    1dba:	7f 4f       	sbci	r23, 0xFF	; 255
    1dbc:	8f 4f       	sbci	r24, 0xFF	; 255
    1dbe:	9f 4f       	sbci	r25, 0xFF	; 255
    1dc0:	08 95       	ret

00001dc2 <__fp_split3>:
    1dc2:	57 fd       	sbrc	r21, 7
    1dc4:	90 58       	subi	r25, 0x80	; 128
    1dc6:	44 0f       	add	r20, r20
    1dc8:	55 1f       	adc	r21, r21
    1dca:	59 f0       	breq	.+22     	; 0x1de2 <__fp_splitA+0x10>
    1dcc:	5f 3f       	cpi	r21, 0xFF	; 255
    1dce:	71 f0       	breq	.+28     	; 0x1dec <__fp_splitA+0x1a>
    1dd0:	47 95       	ror	r20

00001dd2 <__fp_splitA>:
    1dd2:	88 0f       	add	r24, r24
    1dd4:	97 fb       	bst	r25, 7
    1dd6:	99 1f       	adc	r25, r25
    1dd8:	61 f0       	breq	.+24     	; 0x1df2 <__fp_splitA+0x20>
    1dda:	9f 3f       	cpi	r25, 0xFF	; 255
    1ddc:	79 f0       	breq	.+30     	; 0x1dfc <__fp_splitA+0x2a>
    1dde:	87 95       	ror	r24
    1de0:	08 95       	ret
    1de2:	12 16       	cp	r1, r18
    1de4:	13 06       	cpc	r1, r19
    1de6:	14 06       	cpc	r1, r20
    1de8:	55 1f       	adc	r21, r21
    1dea:	f2 cf       	rjmp	.-28     	; 0x1dd0 <__fp_split3+0xe>
    1dec:	46 95       	lsr	r20
    1dee:	f1 df       	rcall	.-30     	; 0x1dd2 <__fp_splitA>
    1df0:	08 c0       	rjmp	.+16     	; 0x1e02 <__fp_splitA+0x30>
    1df2:	16 16       	cp	r1, r22
    1df4:	17 06       	cpc	r1, r23
    1df6:	18 06       	cpc	r1, r24
    1df8:	99 1f       	adc	r25, r25
    1dfa:	f1 cf       	rjmp	.-30     	; 0x1dde <__fp_splitA+0xc>
    1dfc:	86 95       	lsr	r24
    1dfe:	71 05       	cpc	r23, r1
    1e00:	61 05       	cpc	r22, r1
    1e02:	08 94       	sec
    1e04:	08 95       	ret

00001e06 <__fp_zero>:
    1e06:	e8 94       	clt

00001e08 <__fp_szero>:
    1e08:	bb 27       	eor	r27, r27
    1e0a:	66 27       	eor	r22, r22
    1e0c:	77 27       	eor	r23, r23
    1e0e:	cb 01       	movw	r24, r22
    1e10:	97 f9       	bld	r25, 7
    1e12:	08 95       	ret

00001e14 <__mulsf3>:
    1e14:	0e 94 1d 0f 	call	0x1e3a	; 0x1e3a <__mulsf3x>
    1e18:	0c 94 d0 0e 	jmp	0x1da0	; 0x1da0 <__fp_round>
    1e1c:	0e 94 c2 0e 	call	0x1d84	; 0x1d84 <__fp_pscA>
    1e20:	38 f0       	brcs	.+14     	; 0x1e30 <__mulsf3+0x1c>
    1e22:	0e 94 c9 0e 	call	0x1d92	; 0x1d92 <__fp_pscB>
    1e26:	20 f0       	brcs	.+8      	; 0x1e30 <__mulsf3+0x1c>
    1e28:	95 23       	and	r25, r21
    1e2a:	11 f0       	breq	.+4      	; 0x1e30 <__mulsf3+0x1c>
    1e2c:	0c 94 b9 0e 	jmp	0x1d72	; 0x1d72 <__fp_inf>
    1e30:	0c 94 bf 0e 	jmp	0x1d7e	; 0x1d7e <__fp_nan>
    1e34:	11 24       	eor	r1, r1
    1e36:	0c 94 04 0f 	jmp	0x1e08	; 0x1e08 <__fp_szero>

00001e3a <__mulsf3x>:
    1e3a:	0e 94 e1 0e 	call	0x1dc2	; 0x1dc2 <__fp_split3>
    1e3e:	70 f3       	brcs	.-36     	; 0x1e1c <__mulsf3+0x8>

00001e40 <__mulsf3_pse>:
    1e40:	95 9f       	mul	r25, r21
    1e42:	c1 f3       	breq	.-16     	; 0x1e34 <__mulsf3+0x20>
    1e44:	95 0f       	add	r25, r21
    1e46:	50 e0       	ldi	r21, 0x00	; 0
    1e48:	55 1f       	adc	r21, r21
    1e4a:	62 9f       	mul	r22, r18
    1e4c:	f0 01       	movw	r30, r0
    1e4e:	72 9f       	mul	r23, r18
    1e50:	bb 27       	eor	r27, r27
    1e52:	f0 0d       	add	r31, r0
    1e54:	b1 1d       	adc	r27, r1
    1e56:	63 9f       	mul	r22, r19
    1e58:	aa 27       	eor	r26, r26
    1e5a:	f0 0d       	add	r31, r0
    1e5c:	b1 1d       	adc	r27, r1
    1e5e:	aa 1f       	adc	r26, r26
    1e60:	64 9f       	mul	r22, r20
    1e62:	66 27       	eor	r22, r22
    1e64:	b0 0d       	add	r27, r0
    1e66:	a1 1d       	adc	r26, r1
    1e68:	66 1f       	adc	r22, r22
    1e6a:	82 9f       	mul	r24, r18
    1e6c:	22 27       	eor	r18, r18
    1e6e:	b0 0d       	add	r27, r0
    1e70:	a1 1d       	adc	r26, r1
    1e72:	62 1f       	adc	r22, r18
    1e74:	73 9f       	mul	r23, r19
    1e76:	b0 0d       	add	r27, r0
    1e78:	a1 1d       	adc	r26, r1
    1e7a:	62 1f       	adc	r22, r18
    1e7c:	83 9f       	mul	r24, r19
    1e7e:	a0 0d       	add	r26, r0
    1e80:	61 1d       	adc	r22, r1
    1e82:	22 1f       	adc	r18, r18
    1e84:	74 9f       	mul	r23, r20
    1e86:	33 27       	eor	r19, r19
    1e88:	a0 0d       	add	r26, r0
    1e8a:	61 1d       	adc	r22, r1
    1e8c:	23 1f       	adc	r18, r19
    1e8e:	84 9f       	mul	r24, r20
    1e90:	60 0d       	add	r22, r0
    1e92:	21 1d       	adc	r18, r1
    1e94:	82 2f       	mov	r24, r18
    1e96:	76 2f       	mov	r23, r22
    1e98:	6a 2f       	mov	r22, r26
    1e9a:	11 24       	eor	r1, r1
    1e9c:	9f 57       	subi	r25, 0x7F	; 127
    1e9e:	50 40       	sbci	r21, 0x00	; 0
    1ea0:	9a f0       	brmi	.+38     	; 0x1ec8 <__mulsf3_pse+0x88>
    1ea2:	f1 f0       	breq	.+60     	; 0x1ee0 <__mulsf3_pse+0xa0>
    1ea4:	88 23       	and	r24, r24
    1ea6:	4a f0       	brmi	.+18     	; 0x1eba <__mulsf3_pse+0x7a>
    1ea8:	ee 0f       	add	r30, r30
    1eaa:	ff 1f       	adc	r31, r31
    1eac:	bb 1f       	adc	r27, r27
    1eae:	66 1f       	adc	r22, r22
    1eb0:	77 1f       	adc	r23, r23
    1eb2:	88 1f       	adc	r24, r24
    1eb4:	91 50       	subi	r25, 0x01	; 1
    1eb6:	50 40       	sbci	r21, 0x00	; 0
    1eb8:	a9 f7       	brne	.-22     	; 0x1ea4 <__mulsf3_pse+0x64>
    1eba:	9e 3f       	cpi	r25, 0xFE	; 254
    1ebc:	51 05       	cpc	r21, r1
    1ebe:	80 f0       	brcs	.+32     	; 0x1ee0 <__mulsf3_pse+0xa0>
    1ec0:	0c 94 b9 0e 	jmp	0x1d72	; 0x1d72 <__fp_inf>
    1ec4:	0c 94 04 0f 	jmp	0x1e08	; 0x1e08 <__fp_szero>
    1ec8:	5f 3f       	cpi	r21, 0xFF	; 255
    1eca:	e4 f3       	brlt	.-8      	; 0x1ec4 <__mulsf3_pse+0x84>
    1ecc:	98 3e       	cpi	r25, 0xE8	; 232
    1ece:	d4 f3       	brlt	.-12     	; 0x1ec4 <__mulsf3_pse+0x84>
    1ed0:	86 95       	lsr	r24
    1ed2:	77 95       	ror	r23
    1ed4:	67 95       	ror	r22
    1ed6:	b7 95       	ror	r27
    1ed8:	f7 95       	ror	r31
    1eda:	e7 95       	ror	r30
    1edc:	9f 5f       	subi	r25, 0xFF	; 255
    1ede:	c1 f7       	brne	.-16     	; 0x1ed0 <__mulsf3_pse+0x90>
    1ee0:	fe 2b       	or	r31, r30
    1ee2:	88 0f       	add	r24, r24
    1ee4:	91 1d       	adc	r25, r1
    1ee6:	96 95       	lsr	r25
    1ee8:	87 95       	ror	r24
    1eea:	97 f9       	bld	r25, 7
    1eec:	08 95       	ret

00001eee <__divmodhi4>:
    1eee:	97 fb       	bst	r25, 7
    1ef0:	07 2e       	mov	r0, r23
    1ef2:	16 f4       	brtc	.+4      	; 0x1ef8 <__divmodhi4+0xa>
    1ef4:	00 94       	com	r0
    1ef6:	07 d0       	rcall	.+14     	; 0x1f06 <__divmodhi4_neg1>
    1ef8:	77 fd       	sbrc	r23, 7
    1efa:	09 d0       	rcall	.+18     	; 0x1f0e <__divmodhi4_neg2>
    1efc:	0e 94 ad 0f 	call	0x1f5a	; 0x1f5a <__udivmodhi4>
    1f00:	07 fc       	sbrc	r0, 7
    1f02:	05 d0       	rcall	.+10     	; 0x1f0e <__divmodhi4_neg2>
    1f04:	3e f4       	brtc	.+14     	; 0x1f14 <__divmodhi4_exit>

00001f06 <__divmodhi4_neg1>:
    1f06:	90 95       	com	r25
    1f08:	81 95       	neg	r24
    1f0a:	9f 4f       	sbci	r25, 0xFF	; 255
    1f0c:	08 95       	ret

00001f0e <__divmodhi4_neg2>:
    1f0e:	70 95       	com	r23
    1f10:	61 95       	neg	r22
    1f12:	7f 4f       	sbci	r23, 0xFF	; 255

00001f14 <__divmodhi4_exit>:
    1f14:	08 95       	ret

00001f16 <__udivmodsi4>:
    1f16:	a1 e2       	ldi	r26, 0x21	; 33
    1f18:	1a 2e       	mov	r1, r26
    1f1a:	aa 1b       	sub	r26, r26
    1f1c:	bb 1b       	sub	r27, r27
    1f1e:	fd 01       	movw	r30, r26
    1f20:	0d c0       	rjmp	.+26     	; 0x1f3c <__udivmodsi4_ep>

00001f22 <__udivmodsi4_loop>:
    1f22:	aa 1f       	adc	r26, r26
    1f24:	bb 1f       	adc	r27, r27
    1f26:	ee 1f       	adc	r30, r30
    1f28:	ff 1f       	adc	r31, r31
    1f2a:	a2 17       	cp	r26, r18
    1f2c:	b3 07       	cpc	r27, r19
    1f2e:	e4 07       	cpc	r30, r20
    1f30:	f5 07       	cpc	r31, r21
    1f32:	20 f0       	brcs	.+8      	; 0x1f3c <__udivmodsi4_ep>
    1f34:	a2 1b       	sub	r26, r18
    1f36:	b3 0b       	sbc	r27, r19
    1f38:	e4 0b       	sbc	r30, r20
    1f3a:	f5 0b       	sbc	r31, r21

00001f3c <__udivmodsi4_ep>:
    1f3c:	66 1f       	adc	r22, r22
    1f3e:	77 1f       	adc	r23, r23
    1f40:	88 1f       	adc	r24, r24
    1f42:	99 1f       	adc	r25, r25
    1f44:	1a 94       	dec	r1
    1f46:	69 f7       	brne	.-38     	; 0x1f22 <__udivmodsi4_loop>
    1f48:	60 95       	com	r22
    1f4a:	70 95       	com	r23
    1f4c:	80 95       	com	r24
    1f4e:	90 95       	com	r25
    1f50:	9b 01       	movw	r18, r22
    1f52:	ac 01       	movw	r20, r24
    1f54:	bd 01       	movw	r22, r26
    1f56:	cf 01       	movw	r24, r30
    1f58:	08 95       	ret

00001f5a <__udivmodhi4>:
    1f5a:	aa 1b       	sub	r26, r26
    1f5c:	bb 1b       	sub	r27, r27
    1f5e:	51 e1       	ldi	r21, 0x11	; 17
    1f60:	07 c0       	rjmp	.+14     	; 0x1f70 <__udivmodhi4_ep>

00001f62 <__udivmodhi4_loop>:
    1f62:	aa 1f       	adc	r26, r26
    1f64:	bb 1f       	adc	r27, r27
    1f66:	a6 17       	cp	r26, r22
    1f68:	b7 07       	cpc	r27, r23
    1f6a:	10 f0       	brcs	.+4      	; 0x1f70 <__udivmodhi4_ep>
    1f6c:	a6 1b       	sub	r26, r22
    1f6e:	b7 0b       	sbc	r27, r23

00001f70 <__udivmodhi4_ep>:
    1f70:	88 1f       	adc	r24, r24
    1f72:	99 1f       	adc	r25, r25
    1f74:	5a 95       	dec	r21
    1f76:	a9 f7       	brne	.-22     	; 0x1f62 <__udivmodhi4_loop>
    1f78:	80 95       	com	r24
    1f7a:	90 95       	com	r25
    1f7c:	bc 01       	movw	r22, r24
    1f7e:	cd 01       	movw	r24, r26
    1f80:	08 95       	ret

00001f82 <strtod>:
    1f82:	8f 92       	push	r8
    1f84:	9f 92       	push	r9
    1f86:	af 92       	push	r10
    1f88:	bf 92       	push	r11
    1f8a:	cf 92       	push	r12
    1f8c:	df 92       	push	r13
    1f8e:	ef 92       	push	r14
    1f90:	ff 92       	push	r15
    1f92:	0f 93       	push	r16
    1f94:	1f 93       	push	r17
    1f96:	cf 93       	push	r28
    1f98:	df 93       	push	r29
    1f9a:	ec 01       	movw	r28, r24
    1f9c:	6b 01       	movw	r12, r22
    1f9e:	61 15       	cp	r22, r1
    1fa0:	71 05       	cpc	r23, r1
    1fa2:	19 f0       	breq	.+6      	; 0x1faa <strtod+0x28>
    1fa4:	fb 01       	movw	r30, r22
    1fa6:	80 83       	st	Z, r24
    1fa8:	91 83       	std	Z+1, r25	; 0x01
    1faa:	7e 01       	movw	r14, r28
    1fac:	ff ef       	ldi	r31, 0xFF	; 255
    1fae:	ef 1a       	sub	r14, r31
    1fb0:	ff 0a       	sbc	r15, r31
    1fb2:	08 81       	ld	r16, Y
    1fb4:	80 2f       	mov	r24, r16
    1fb6:	90 e0       	ldi	r25, 0x00	; 0
    1fb8:	0e 94 48 12 	call	0x2490	; 0x2490 <isspace>
    1fbc:	89 2b       	or	r24, r25
    1fbe:	11 f0       	breq	.+4      	; 0x1fc4 <strtod+0x42>
    1fc0:	e7 01       	movw	r28, r14
    1fc2:	f3 cf       	rjmp	.-26     	; 0x1faa <strtod+0x28>
    1fc4:	0d 32       	cpi	r16, 0x2D	; 45
    1fc6:	39 f4       	brne	.+14     	; 0x1fd6 <strtod+0x54>
    1fc8:	7e 01       	movw	r14, r28
    1fca:	82 e0       	ldi	r24, 0x02	; 2
    1fcc:	e8 0e       	add	r14, r24
    1fce:	f1 1c       	adc	r15, r1
    1fd0:	09 81       	ldd	r16, Y+1	; 0x01
    1fd2:	11 e0       	ldi	r17, 0x01	; 1
    1fd4:	08 c0       	rjmp	.+16     	; 0x1fe6 <strtod+0x64>
    1fd6:	0b 32       	cpi	r16, 0x2B	; 43
    1fd8:	29 f4       	brne	.+10     	; 0x1fe4 <strtod+0x62>
    1fda:	7e 01       	movw	r14, r28
    1fdc:	92 e0       	ldi	r25, 0x02	; 2
    1fde:	e9 0e       	add	r14, r25
    1fe0:	f1 1c       	adc	r15, r1
    1fe2:	09 81       	ldd	r16, Y+1	; 0x01
    1fe4:	10 e0       	ldi	r17, 0x00	; 0
    1fe6:	e7 01       	movw	r28, r14
    1fe8:	21 97       	sbiw	r28, 0x01	; 1
    1fea:	43 e0       	ldi	r20, 0x03	; 3
    1fec:	50 e0       	ldi	r21, 0x00	; 0
    1fee:	60 ef       	ldi	r22, 0xF0	; 240
    1ff0:	70 e0       	ldi	r23, 0x00	; 0
    1ff2:	ce 01       	movw	r24, r28
    1ff4:	0e 94 51 12 	call	0x24a2	; 0x24a2 <strncasecmp_P>
    1ff8:	89 2b       	or	r24, r25
    1ffa:	c1 f4       	brne	.+48     	; 0x202c <strtod+0xaa>
    1ffc:	23 96       	adiw	r28, 0x03	; 3
    1ffe:	45 e0       	ldi	r20, 0x05	; 5
    2000:	50 e0       	ldi	r21, 0x00	; 0
    2002:	6b ee       	ldi	r22, 0xEB	; 235
    2004:	70 e0       	ldi	r23, 0x00	; 0
    2006:	ce 01       	movw	r24, r28
    2008:	0e 94 51 12 	call	0x24a2	; 0x24a2 <strncasecmp_P>
    200c:	89 2b       	or	r24, r25
    200e:	09 f4       	brne	.+2      	; 0x2012 <strtod+0x90>
    2010:	25 96       	adiw	r28, 0x05	; 5
    2012:	c1 14       	cp	r12, r1
    2014:	d1 04       	cpc	r13, r1
    2016:	19 f0       	breq	.+6      	; 0x201e <strtod+0x9c>
    2018:	f6 01       	movw	r30, r12
    201a:	c0 83       	st	Z, r28
    201c:	d1 83       	std	Z+1, r29	; 0x01
    201e:	11 11       	cpse	r17, r1
    2020:	f6 c0       	rjmp	.+492    	; 0x220e <strtod+0x28c>
    2022:	60 e0       	ldi	r22, 0x00	; 0
    2024:	70 e0       	ldi	r23, 0x00	; 0
    2026:	80 e8       	ldi	r24, 0x80	; 128
    2028:	9f e7       	ldi	r25, 0x7F	; 127
    202a:	fa c0       	rjmp	.+500    	; 0x2220 <strtod+0x29e>
    202c:	43 e0       	ldi	r20, 0x03	; 3
    202e:	50 e0       	ldi	r21, 0x00	; 0
    2030:	68 ee       	ldi	r22, 0xE8	; 232
    2032:	70 e0       	ldi	r23, 0x00	; 0
    2034:	ce 01       	movw	r24, r28
    2036:	0e 94 51 12 	call	0x24a2	; 0x24a2 <strncasecmp_P>
    203a:	89 2b       	or	r24, r25
    203c:	59 f4       	brne	.+22     	; 0x2054 <strtod+0xd2>
    203e:	c1 14       	cp	r12, r1
    2040:	d1 04       	cpc	r13, r1
    2042:	09 f4       	brne	.+2      	; 0x2046 <strtod+0xc4>
    2044:	e9 c0       	rjmp	.+466    	; 0x2218 <strtod+0x296>
    2046:	f2 e0       	ldi	r31, 0x02	; 2
    2048:	ef 0e       	add	r14, r31
    204a:	f1 1c       	adc	r15, r1
    204c:	f6 01       	movw	r30, r12
    204e:	e0 82       	st	Z, r14
    2050:	f1 82       	std	Z+1, r15	; 0x01
    2052:	e2 c0       	rjmp	.+452    	; 0x2218 <strtod+0x296>
    2054:	20 e0       	ldi	r18, 0x00	; 0
    2056:	30 e0       	ldi	r19, 0x00	; 0
    2058:	a9 01       	movw	r20, r18
    205a:	c0 e0       	ldi	r28, 0x00	; 0
    205c:	d0 e0       	ldi	r29, 0x00	; 0
    205e:	f7 01       	movw	r30, r14
    2060:	60 ed       	ldi	r22, 0xD0	; 208
    2062:	a6 2e       	mov	r10, r22
    2064:	a0 0e       	add	r10, r16
    2066:	89 e0       	ldi	r24, 0x09	; 9
    2068:	8a 15       	cp	r24, r10
    206a:	30 f1       	brcs	.+76     	; 0x20b8 <strtod+0x136>
    206c:	91 2f       	mov	r25, r17
    206e:	92 60       	ori	r25, 0x02	; 2
    2070:	b9 2e       	mov	r11, r25
    2072:	81 2f       	mov	r24, r17
    2074:	88 70       	andi	r24, 0x08	; 8
    2076:	12 ff       	sbrs	r17, 2
    2078:	04 c0       	rjmp	.+8      	; 0x2082 <strtod+0x100>
    207a:	81 11       	cpse	r24, r1
    207c:	24 c0       	rjmp	.+72     	; 0x20c6 <strtod+0x144>
    207e:	21 96       	adiw	r28, 0x01	; 1
    2080:	22 c0       	rjmp	.+68     	; 0x20c6 <strtod+0x144>
    2082:	81 11       	cpse	r24, r1
    2084:	21 97       	sbiw	r28, 0x01	; 1
    2086:	a5 e0       	ldi	r26, 0x05	; 5
    2088:	b0 e0       	ldi	r27, 0x00	; 0
    208a:	0e 94 fe 15 	call	0x2bfc	; 0x2bfc <__muluhisi3>
    208e:	dc 01       	movw	r26, r24
    2090:	cb 01       	movw	r24, r22
    2092:	88 0f       	add	r24, r24
    2094:	99 1f       	adc	r25, r25
    2096:	aa 1f       	adc	r26, r26
    2098:	bb 1f       	adc	r27, r27
    209a:	9c 01       	movw	r18, r24
    209c:	ad 01       	movw	r20, r26
    209e:	2a 0d       	add	r18, r10
    20a0:	31 1d       	adc	r19, r1
    20a2:	41 1d       	adc	r20, r1
    20a4:	51 1d       	adc	r21, r1
    20a6:	28 39       	cpi	r18, 0x98	; 152
    20a8:	89 e9       	ldi	r24, 0x99	; 153
    20aa:	38 07       	cpc	r19, r24
    20ac:	48 07       	cpc	r20, r24
    20ae:	89 e1       	ldi	r24, 0x19	; 25
    20b0:	58 07       	cpc	r21, r24
    20b2:	48 f0       	brcs	.+18     	; 0x20c6 <strtod+0x144>
    20b4:	16 60       	ori	r17, 0x06	; 6
    20b6:	06 c0       	rjmp	.+12     	; 0x20c4 <strtod+0x142>
    20b8:	9e ef       	ldi	r25, 0xFE	; 254
    20ba:	a9 12       	cpse	r10, r25
    20bc:	0a c0       	rjmp	.+20     	; 0x20d2 <strtod+0x150>
    20be:	13 fd       	sbrc	r17, 3
    20c0:	40 c0       	rjmp	.+128    	; 0x2142 <strtod+0x1c0>
    20c2:	18 60       	ori	r17, 0x08	; 8
    20c4:	b1 2e       	mov	r11, r17
    20c6:	8f ef       	ldi	r24, 0xFF	; 255
    20c8:	e8 1a       	sub	r14, r24
    20ca:	f8 0a       	sbc	r15, r24
    20cc:	00 81       	ld	r16, Z
    20ce:	1b 2d       	mov	r17, r11
    20d0:	c6 cf       	rjmp	.-116    	; 0x205e <strtod+0xdc>
    20d2:	80 2f       	mov	r24, r16
    20d4:	8f 7d       	andi	r24, 0xDF	; 223
    20d6:	85 34       	cpi	r24, 0x45	; 69
    20d8:	a1 f5       	brne	.+104    	; 0x2142 <strtod+0x1c0>
    20da:	80 81       	ld	r24, Z
    20dc:	8d 32       	cpi	r24, 0x2D	; 45
    20de:	11 f4       	brne	.+4      	; 0x20e4 <strtod+0x162>
    20e0:	10 61       	ori	r17, 0x10	; 16
    20e2:	06 c0       	rjmp	.+12     	; 0x20f0 <strtod+0x16e>
    20e4:	8b 32       	cpi	r24, 0x2B	; 43
    20e6:	21 f0       	breq	.+8      	; 0x20f0 <strtod+0x16e>
    20e8:	31 96       	adiw	r30, 0x01	; 1
    20ea:	61 e0       	ldi	r22, 0x01	; 1
    20ec:	70 e0       	ldi	r23, 0x00	; 0
    20ee:	04 c0       	rjmp	.+8      	; 0x20f8 <strtod+0x176>
    20f0:	81 81       	ldd	r24, Z+1	; 0x01
    20f2:	32 96       	adiw	r30, 0x02	; 2
    20f4:	62 e0       	ldi	r22, 0x02	; 2
    20f6:	70 e0       	ldi	r23, 0x00	; 0
    20f8:	80 53       	subi	r24, 0x30	; 48
    20fa:	8a 30       	cpi	r24, 0x0A	; 10
    20fc:	18 f0       	brcs	.+6      	; 0x2104 <strtod+0x182>
    20fe:	e6 1b       	sub	r30, r22
    2100:	f7 0b       	sbc	r31, r23
    2102:	1f c0       	rjmp	.+62     	; 0x2142 <strtod+0x1c0>
    2104:	60 e0       	ldi	r22, 0x00	; 0
    2106:	70 e0       	ldi	r23, 0x00	; 0
    2108:	60 38       	cpi	r22, 0x80	; 128
    210a:	9c e0       	ldi	r25, 0x0C	; 12
    210c:	79 07       	cpc	r23, r25
    210e:	5c f4       	brge	.+22     	; 0x2126 <strtod+0x1a4>
    2110:	db 01       	movw	r26, r22
    2112:	aa 0f       	add	r26, r26
    2114:	bb 1f       	adc	r27, r27
    2116:	aa 0f       	add	r26, r26
    2118:	bb 1f       	adc	r27, r27
    211a:	6a 0f       	add	r22, r26
    211c:	7b 1f       	adc	r23, r27
    211e:	66 0f       	add	r22, r22
    2120:	77 1f       	adc	r23, r23
    2122:	68 0f       	add	r22, r24
    2124:	71 1d       	adc	r23, r1
    2126:	31 96       	adiw	r30, 0x01	; 1
    2128:	df 01       	movw	r26, r30
    212a:	11 97       	sbiw	r26, 0x01	; 1
    212c:	8c 91       	ld	r24, X
    212e:	80 53       	subi	r24, 0x30	; 48
    2130:	8a 30       	cpi	r24, 0x0A	; 10
    2132:	50 f3       	brcs	.-44     	; 0x2108 <strtod+0x186>
    2134:	14 ff       	sbrs	r17, 4
    2136:	03 c0       	rjmp	.+6      	; 0x213e <strtod+0x1bc>
    2138:	71 95       	neg	r23
    213a:	61 95       	neg	r22
    213c:	71 09       	sbc	r23, r1
    213e:	c6 0f       	add	r28, r22
    2140:	d7 1f       	adc	r29, r23
    2142:	11 ff       	sbrs	r17, 1
    2144:	08 c0       	rjmp	.+16     	; 0x2156 <strtod+0x1d4>
    2146:	c1 14       	cp	r12, r1
    2148:	d1 04       	cpc	r13, r1
    214a:	29 f0       	breq	.+10     	; 0x2156 <strtod+0x1d4>
    214c:	cf 01       	movw	r24, r30
    214e:	01 97       	sbiw	r24, 0x01	; 1
    2150:	f6 01       	movw	r30, r12
    2152:	80 83       	st	Z, r24
    2154:	91 83       	std	Z+1, r25	; 0x01
    2156:	ca 01       	movw	r24, r20
    2158:	b9 01       	movw	r22, r18
    215a:	0e 94 7c 0e 	call	0x1cf8	; 0x1cf8 <__floatunsisf>
    215e:	21 2f       	mov	r18, r17
    2160:	23 70       	andi	r18, 0x03	; 3
    2162:	23 30       	cpi	r18, 0x03	; 3
    2164:	19 f0       	breq	.+6      	; 0x216c <strtod+0x1ea>
    2166:	4b 01       	movw	r8, r22
    2168:	5c 01       	movw	r10, r24
    216a:	06 c0       	rjmp	.+12     	; 0x2178 <strtod+0x1f6>
    216c:	4b 01       	movw	r8, r22
    216e:	5c 01       	movw	r10, r24
    2170:	b7 fa       	bst	r11, 7
    2172:	b0 94       	com	r11
    2174:	b7 f8       	bld	r11, 7
    2176:	b0 94       	com	r11
    2178:	20 e0       	ldi	r18, 0x00	; 0
    217a:	30 e0       	ldi	r19, 0x00	; 0
    217c:	a9 01       	movw	r20, r18
    217e:	c5 01       	movw	r24, r10
    2180:	b4 01       	movw	r22, r8
    2182:	0e 94 0e 13 	call	0x261c	; 0x261c <__cmpsf2>
    2186:	88 23       	and	r24, r24
    2188:	09 f4       	brne	.+2      	; 0x218c <strtod+0x20a>
    218a:	3e c0       	rjmp	.+124    	; 0x2208 <strtod+0x286>
    218c:	d7 ff       	sbrs	r29, 7
    218e:	06 c0       	rjmp	.+12     	; 0x219c <strtod+0x21a>
    2190:	d1 95       	neg	r29
    2192:	c1 95       	neg	r28
    2194:	d1 09       	sbc	r29, r1
    2196:	07 e0       	ldi	r16, 0x07	; 7
    2198:	11 e0       	ldi	r17, 0x01	; 1
    219a:	02 c0       	rjmp	.+4      	; 0x21a0 <strtod+0x21e>
    219c:	0f e1       	ldi	r16, 0x1F	; 31
    219e:	11 e0       	ldi	r17, 0x01	; 1
    21a0:	68 01       	movw	r12, r16
    21a2:	f8 e1       	ldi	r31, 0x18	; 24
    21a4:	cf 1a       	sub	r12, r31
    21a6:	d1 08       	sbc	r13, r1
    21a8:	90 e2       	ldi	r25, 0x20	; 32
    21aa:	e9 2e       	mov	r14, r25
    21ac:	f1 2c       	mov	r15, r1
    21ae:	ce 15       	cp	r28, r14
    21b0:	df 05       	cpc	r29, r15
    21b2:	74 f0       	brlt	.+28     	; 0x21d0 <strtod+0x24e>
    21b4:	f8 01       	movw	r30, r16
    21b6:	25 91       	lpm	r18, Z+
    21b8:	35 91       	lpm	r19, Z+
    21ba:	45 91       	lpm	r20, Z+
    21bc:	54 91       	lpm	r21, Z
    21be:	c5 01       	movw	r24, r10
    21c0:	b4 01       	movw	r22, r8
    21c2:	0e 94 0a 0f 	call	0x1e14	; 0x1e14 <__mulsf3>
    21c6:	4b 01       	movw	r8, r22
    21c8:	5c 01       	movw	r10, r24
    21ca:	ce 19       	sub	r28, r14
    21cc:	df 09       	sbc	r29, r15
    21ce:	ef cf       	rjmp	.-34     	; 0x21ae <strtod+0x22c>
    21d0:	04 50       	subi	r16, 0x04	; 4
    21d2:	11 09       	sbc	r17, r1
    21d4:	f5 94       	asr	r15
    21d6:	e7 94       	ror	r14
    21d8:	0c 15       	cp	r16, r12
    21da:	1d 05       	cpc	r17, r13
    21dc:	41 f7       	brne	.-48     	; 0x21ae <strtod+0x22c>
    21de:	8a 2d       	mov	r24, r10
    21e0:	88 0f       	add	r24, r24
    21e2:	8b 2d       	mov	r24, r11
    21e4:	88 1f       	adc	r24, r24
    21e6:	8f 3f       	cpi	r24, 0xFF	; 255
    21e8:	49 f0       	breq	.+18     	; 0x21fc <strtod+0x27a>
    21ea:	20 e0       	ldi	r18, 0x00	; 0
    21ec:	30 e0       	ldi	r19, 0x00	; 0
    21ee:	a9 01       	movw	r20, r18
    21f0:	c5 01       	movw	r24, r10
    21f2:	b4 01       	movw	r22, r8
    21f4:	0e 94 0e 13 	call	0x261c	; 0x261c <__cmpsf2>
    21f8:	81 11       	cpse	r24, r1
    21fa:	06 c0       	rjmp	.+12     	; 0x2208 <strtod+0x286>
    21fc:	82 e2       	ldi	r24, 0x22	; 34
    21fe:	90 e0       	ldi	r25, 0x00	; 0
    2200:	80 93 ef 43 	sts	0x43EF, r24	; 0x8043ef <errno>
    2204:	90 93 f0 43 	sts	0x43F0, r25	; 0x8043f0 <errno+0x1>
    2208:	c5 01       	movw	r24, r10
    220a:	b4 01       	movw	r22, r8
    220c:	09 c0       	rjmp	.+18     	; 0x2220 <strtod+0x29e>
    220e:	60 e0       	ldi	r22, 0x00	; 0
    2210:	70 e0       	ldi	r23, 0x00	; 0
    2212:	80 e8       	ldi	r24, 0x80	; 128
    2214:	9f ef       	ldi	r25, 0xFF	; 255
    2216:	04 c0       	rjmp	.+8      	; 0x2220 <strtod+0x29e>
    2218:	60 e0       	ldi	r22, 0x00	; 0
    221a:	70 e0       	ldi	r23, 0x00	; 0
    221c:	80 ec       	ldi	r24, 0xC0	; 192
    221e:	9f e7       	ldi	r25, 0x7F	; 127
    2220:	df 91       	pop	r29
    2222:	cf 91       	pop	r28
    2224:	1f 91       	pop	r17
    2226:	0f 91       	pop	r16
    2228:	ff 90       	pop	r15
    222a:	ef 90       	pop	r14
    222c:	df 90       	pop	r13
    222e:	cf 90       	pop	r12
    2230:	bf 90       	pop	r11
    2232:	af 90       	pop	r10
    2234:	9f 90       	pop	r9
    2236:	8f 90       	pop	r8
    2238:	08 95       	ret

0000223a <strtoul>:
    223a:	3f 92       	push	r3
    223c:	4f 92       	push	r4
    223e:	5f 92       	push	r5
    2240:	6f 92       	push	r6
    2242:	7f 92       	push	r7
    2244:	8f 92       	push	r8
    2246:	9f 92       	push	r9
    2248:	af 92       	push	r10
    224a:	bf 92       	push	r11
    224c:	cf 92       	push	r12
    224e:	df 92       	push	r13
    2250:	ef 92       	push	r14
    2252:	ff 92       	push	r15
    2254:	0f 93       	push	r16
    2256:	1f 93       	push	r17
    2258:	cf 93       	push	r28
    225a:	df 93       	push	r29
    225c:	5c 01       	movw	r10, r24
    225e:	6b 01       	movw	r12, r22
    2260:	7a 01       	movw	r14, r20
    2262:	61 15       	cp	r22, r1
    2264:	71 05       	cpc	r23, r1
    2266:	19 f0       	breq	.+6      	; 0x226e <strtoul+0x34>
    2268:	fb 01       	movw	r30, r22
    226a:	80 83       	st	Z, r24
    226c:	91 83       	std	Z+1, r25	; 0x01
    226e:	e1 14       	cp	r14, r1
    2270:	f1 04       	cpc	r15, r1
    2272:	29 f0       	breq	.+10     	; 0x227e <strtoul+0x44>
    2274:	c7 01       	movw	r24, r14
    2276:	02 97       	sbiw	r24, 0x02	; 2
    2278:	83 97       	sbiw	r24, 0x23	; 35
    227a:	08 f0       	brcs	.+2      	; 0x227e <strtoul+0x44>
    227c:	c9 c0       	rjmp	.+402    	; 0x2410 <strtoul+0x1d6>
    227e:	e5 01       	movw	r28, r10
    2280:	21 96       	adiw	r28, 0x01	; 1
    2282:	f5 01       	movw	r30, r10
    2284:	10 81       	ld	r17, Z
    2286:	81 2f       	mov	r24, r17
    2288:	90 e0       	ldi	r25, 0x00	; 0
    228a:	0e 94 48 12 	call	0x2490	; 0x2490 <isspace>
    228e:	89 2b       	or	r24, r25
    2290:	11 f0       	breq	.+4      	; 0x2296 <strtoul+0x5c>
    2292:	5e 01       	movw	r10, r28
    2294:	f4 cf       	rjmp	.-24     	; 0x227e <strtoul+0x44>
    2296:	1d 32       	cpi	r17, 0x2D	; 45
    2298:	29 f4       	brne	.+10     	; 0x22a4 <strtoul+0x6a>
    229a:	21 96       	adiw	r28, 0x01	; 1
    229c:	f5 01       	movw	r30, r10
    229e:	11 81       	ldd	r17, Z+1	; 0x01
    22a0:	01 e0       	ldi	r16, 0x01	; 1
    22a2:	07 c0       	rjmp	.+14     	; 0x22b2 <strtoul+0x78>
    22a4:	1b 32       	cpi	r17, 0x2B	; 43
    22a6:	21 f4       	brne	.+8      	; 0x22b0 <strtoul+0x76>
    22a8:	e5 01       	movw	r28, r10
    22aa:	22 96       	adiw	r28, 0x02	; 2
    22ac:	f5 01       	movw	r30, r10
    22ae:	11 81       	ldd	r17, Z+1	; 0x01
    22b0:	00 e0       	ldi	r16, 0x00	; 0
    22b2:	e1 14       	cp	r14, r1
    22b4:	f1 04       	cpc	r15, r1
    22b6:	b1 f0       	breq	.+44     	; 0x22e4 <strtoul+0xaa>
    22b8:	f0 e1       	ldi	r31, 0x10	; 16
    22ba:	ef 16       	cp	r14, r31
    22bc:	f1 04       	cpc	r15, r1
    22be:	29 f4       	brne	.+10     	; 0x22ca <strtoul+0x90>
    22c0:	b0 c0       	rjmp	.+352    	; 0x2422 <strtoul+0x1e8>
    22c2:	10 e3       	ldi	r17, 0x30	; 48
    22c4:	e1 14       	cp	r14, r1
    22c6:	f1 04       	cpc	r15, r1
    22c8:	01 f1       	breq	.+64     	; 0x230a <strtoul+0xd0>
    22ca:	2a e0       	ldi	r18, 0x0A	; 10
    22cc:	e2 16       	cp	r14, r18
    22ce:	f1 04       	cpc	r15, r1
    22d0:	b1 f1       	breq	.+108    	; 0x233e <strtoul+0x104>
    22d2:	80 e1       	ldi	r24, 0x10	; 16
    22d4:	e8 16       	cp	r14, r24
    22d6:	f1 04       	cpc	r15, r1
    22d8:	71 f0       	breq	.+28     	; 0x22f6 <strtoul+0xbc>
    22da:	e8 e0       	ldi	r30, 0x08	; 8
    22dc:	ee 16       	cp	r14, r30
    22de:	f1 04       	cpc	r15, r1
    22e0:	f1 f4       	brne	.+60     	; 0x231e <strtoul+0xe4>
    22e2:	13 c0       	rjmp	.+38     	; 0x230a <strtoul+0xd0>
    22e4:	10 33       	cpi	r17, 0x30	; 48
    22e6:	41 f5       	brne	.+80     	; 0x2338 <strtoul+0xfe>
    22e8:	88 81       	ld	r24, Y
    22ea:	8f 7d       	andi	r24, 0xDF	; 223
    22ec:	88 35       	cpi	r24, 0x58	; 88
    22ee:	49 f7       	brne	.-46     	; 0x22c2 <strtoul+0x88>
    22f0:	19 81       	ldd	r17, Y+1	; 0x01
    22f2:	22 96       	adiw	r28, 0x02	; 2
    22f4:	02 60       	ori	r16, 0x02	; 2
    22f6:	f0 e1       	ldi	r31, 0x10	; 16
    22f8:	ef 2e       	mov	r14, r31
    22fa:	f1 2c       	mov	r15, r1
    22fc:	88 24       	eor	r8, r8
    22fe:	8a 94       	dec	r8
    2300:	98 2c       	mov	r9, r8
    2302:	a8 2c       	mov	r10, r8
    2304:	af e0       	ldi	r26, 0x0F	; 15
    2306:	ba 2e       	mov	r11, r26
    2308:	20 c0       	rjmp	.+64     	; 0x234a <strtoul+0x110>
    230a:	78 e0       	ldi	r23, 0x08	; 8
    230c:	e7 2e       	mov	r14, r23
    230e:	f1 2c       	mov	r15, r1
    2310:	88 24       	eor	r8, r8
    2312:	8a 94       	dec	r8
    2314:	98 2c       	mov	r9, r8
    2316:	a8 2c       	mov	r10, r8
    2318:	ef e1       	ldi	r30, 0x1F	; 31
    231a:	be 2e       	mov	r11, r30
    231c:	16 c0       	rjmp	.+44     	; 0x234a <strtoul+0x110>
    231e:	6f ef       	ldi	r22, 0xFF	; 255
    2320:	7f ef       	ldi	r23, 0xFF	; 255
    2322:	cb 01       	movw	r24, r22
    2324:	97 01       	movw	r18, r14
    2326:	0f 2c       	mov	r0, r15
    2328:	00 0c       	add	r0, r0
    232a:	44 0b       	sbc	r20, r20
    232c:	55 0b       	sbc	r21, r21
    232e:	0e 94 8b 0f 	call	0x1f16	; 0x1f16 <__udivmodsi4>
    2332:	49 01       	movw	r8, r18
    2334:	5a 01       	movw	r10, r20
    2336:	09 c0       	rjmp	.+18     	; 0x234a <strtoul+0x110>
    2338:	8a e0       	ldi	r24, 0x0A	; 10
    233a:	e8 2e       	mov	r14, r24
    233c:	f1 2c       	mov	r15, r1
    233e:	69 e9       	ldi	r22, 0x99	; 153
    2340:	86 2e       	mov	r8, r22
    2342:	98 2c       	mov	r9, r8
    2344:	a8 2c       	mov	r10, r8
    2346:	69 e1       	ldi	r22, 0x19	; 25
    2348:	b6 2e       	mov	r11, r22
    234a:	40 e0       	ldi	r20, 0x00	; 0
    234c:	60 e0       	ldi	r22, 0x00	; 0
    234e:	70 e0       	ldi	r23, 0x00	; 0
    2350:	cb 01       	movw	r24, r22
    2352:	27 01       	movw	r4, r14
    2354:	0f 2c       	mov	r0, r15
    2356:	00 0c       	add	r0, r0
    2358:	66 08       	sbc	r6, r6
    235a:	77 08       	sbc	r7, r7
    235c:	fe 01       	movw	r30, r28
    235e:	50 ed       	ldi	r21, 0xD0	; 208
    2360:	35 2e       	mov	r3, r21
    2362:	31 0e       	add	r3, r17
    2364:	29 e0       	ldi	r18, 0x09	; 9
    2366:	23 15       	cp	r18, r3
    2368:	70 f4       	brcc	.+28     	; 0x2386 <strtoul+0x14c>
    236a:	2f eb       	ldi	r18, 0xBF	; 191
    236c:	21 0f       	add	r18, r17
    236e:	2a 31       	cpi	r18, 0x1A	; 26
    2370:	18 f4       	brcc	.+6      	; 0x2378 <strtoul+0x13e>
    2372:	39 ec       	ldi	r19, 0xC9	; 201
    2374:	33 2e       	mov	r3, r19
    2376:	06 c0       	rjmp	.+12     	; 0x2384 <strtoul+0x14a>
    2378:	2f e9       	ldi	r18, 0x9F	; 159
    237a:	21 0f       	add	r18, r17
    237c:	2a 31       	cpi	r18, 0x1A	; 26
    237e:	30 f5       	brcc	.+76     	; 0x23cc <strtoul+0x192>
    2380:	29 ea       	ldi	r18, 0xA9	; 169
    2382:	32 2e       	mov	r3, r18
    2384:	31 0e       	add	r3, r17
    2386:	23 2d       	mov	r18, r3
    2388:	30 e0       	ldi	r19, 0x00	; 0
    238a:	2e 15       	cp	r18, r14
    238c:	3f 05       	cpc	r19, r15
    238e:	f4 f4       	brge	.+60     	; 0x23cc <strtoul+0x192>
    2390:	4f 3f       	cpi	r20, 0xFF	; 255
    2392:	c9 f0       	breq	.+50     	; 0x23c6 <strtoul+0x18c>
    2394:	86 16       	cp	r8, r22
    2396:	97 06       	cpc	r9, r23
    2398:	a8 06       	cpc	r10, r24
    239a:	b9 06       	cpc	r11, r25
    239c:	88 f0       	brcs	.+34     	; 0x23c0 <strtoul+0x186>
    239e:	a3 01       	movw	r20, r6
    23a0:	92 01       	movw	r18, r4
    23a2:	0e 94 ee 15 	call	0x2bdc	; 0x2bdc <__mulsi3>
    23a6:	23 2d       	mov	r18, r3
    23a8:	30 e0       	ldi	r19, 0x00	; 0
    23aa:	40 e0       	ldi	r20, 0x00	; 0
    23ac:	50 e0       	ldi	r21, 0x00	; 0
    23ae:	62 0f       	add	r22, r18
    23b0:	73 1f       	adc	r23, r19
    23b2:	84 1f       	adc	r24, r20
    23b4:	95 1f       	adc	r25, r21
    23b6:	62 17       	cp	r22, r18
    23b8:	73 07       	cpc	r23, r19
    23ba:	84 07       	cpc	r24, r20
    23bc:	95 07       	cpc	r25, r21
    23be:	10 f4       	brcc	.+4      	; 0x23c4 <strtoul+0x18a>
    23c0:	4f ef       	ldi	r20, 0xFF	; 255
    23c2:	01 c0       	rjmp	.+2      	; 0x23c6 <strtoul+0x18c>
    23c4:	41 e0       	ldi	r20, 0x01	; 1
    23c6:	21 96       	adiw	r28, 0x01	; 1
    23c8:	10 81       	ld	r17, Z
    23ca:	c8 cf       	rjmp	.-112    	; 0x235c <strtoul+0x122>
    23cc:	c1 14       	cp	r12, r1
    23ce:	d1 04       	cpc	r13, r1
    23d0:	51 f0       	breq	.+20     	; 0x23e6 <strtoul+0x1ac>
    23d2:	44 23       	and	r20, r20
    23d4:	11 f0       	breq	.+4      	; 0x23da <strtoul+0x1a0>
    23d6:	21 97       	sbiw	r28, 0x01	; 1
    23d8:	03 c0       	rjmp	.+6      	; 0x23e0 <strtoul+0x1a6>
    23da:	01 ff       	sbrs	r16, 1
    23dc:	04 c0       	rjmp	.+8      	; 0x23e6 <strtoul+0x1ac>
    23de:	22 97       	sbiw	r28, 0x02	; 2
    23e0:	f6 01       	movw	r30, r12
    23e2:	c0 83       	st	Z, r28
    23e4:	d1 83       	std	Z+1, r29	; 0x01
    23e6:	00 ff       	sbrs	r16, 0
    23e8:	07 c0       	rjmp	.+14     	; 0x23f8 <strtoul+0x1be>
    23ea:	90 95       	com	r25
    23ec:	80 95       	com	r24
    23ee:	70 95       	com	r23
    23f0:	61 95       	neg	r22
    23f2:	7f 4f       	sbci	r23, 0xFF	; 255
    23f4:	8f 4f       	sbci	r24, 0xFF	; 255
    23f6:	9f 4f       	sbci	r25, 0xFF	; 255
    23f8:	4f 3f       	cpi	r20, 0xFF	; 255
    23fa:	79 f4       	brne	.+30     	; 0x241a <strtoul+0x1e0>
    23fc:	82 e2       	ldi	r24, 0x22	; 34
    23fe:	90 e0       	ldi	r25, 0x00	; 0
    2400:	80 93 ef 43 	sts	0x43EF, r24	; 0x8043ef <errno>
    2404:	90 93 f0 43 	sts	0x43F0, r25	; 0x8043f0 <errno+0x1>
    2408:	3f ef       	ldi	r19, 0xFF	; 255
    240a:	2f ef       	ldi	r18, 0xFF	; 255
    240c:	9f ef       	ldi	r25, 0xFF	; 255
    240e:	0d c0       	rjmp	.+26     	; 0x242a <strtoul+0x1f0>
    2410:	40 e0       	ldi	r20, 0x00	; 0
    2412:	30 e0       	ldi	r19, 0x00	; 0
    2414:	20 e0       	ldi	r18, 0x00	; 0
    2416:	90 e0       	ldi	r25, 0x00	; 0
    2418:	08 c0       	rjmp	.+16     	; 0x242a <strtoul+0x1f0>
    241a:	46 2f       	mov	r20, r22
    241c:	37 2f       	mov	r19, r23
    241e:	28 2f       	mov	r18, r24
    2420:	04 c0       	rjmp	.+8      	; 0x242a <strtoul+0x1f0>
    2422:	10 33       	cpi	r17, 0x30	; 48
    2424:	09 f0       	breq	.+2      	; 0x2428 <strtoul+0x1ee>
    2426:	67 cf       	rjmp	.-306    	; 0x22f6 <strtoul+0xbc>
    2428:	5f cf       	rjmp	.-322    	; 0x22e8 <strtoul+0xae>
    242a:	64 2f       	mov	r22, r20
    242c:	73 2f       	mov	r23, r19
    242e:	82 2f       	mov	r24, r18
    2430:	df 91       	pop	r29
    2432:	cf 91       	pop	r28
    2434:	1f 91       	pop	r17
    2436:	0f 91       	pop	r16
    2438:	ff 90       	pop	r15
    243a:	ef 90       	pop	r14
    243c:	df 90       	pop	r13
    243e:	cf 90       	pop	r12
    2440:	bf 90       	pop	r11
    2442:	af 90       	pop	r10
    2444:	9f 90       	pop	r9
    2446:	8f 90       	pop	r8
    2448:	7f 90       	pop	r7
    244a:	6f 90       	pop	r6
    244c:	5f 90       	pop	r5
    244e:	4f 90       	pop	r4
    2450:	3f 90       	pop	r3
    2452:	08 95       	ret

00002454 <atoi>:
    2454:	fc 01       	movw	r30, r24
    2456:	88 27       	eor	r24, r24
    2458:	99 27       	eor	r25, r25
    245a:	e8 94       	clt
    245c:	21 91       	ld	r18, Z+
    245e:	20 32       	cpi	r18, 0x20	; 32
    2460:	e9 f3       	breq	.-6      	; 0x245c <atoi+0x8>
    2462:	29 30       	cpi	r18, 0x09	; 9
    2464:	10 f0       	brcs	.+4      	; 0x246a <atoi+0x16>
    2466:	2e 30       	cpi	r18, 0x0E	; 14
    2468:	c8 f3       	brcs	.-14     	; 0x245c <atoi+0x8>
    246a:	2b 32       	cpi	r18, 0x2B	; 43
    246c:	41 f0       	breq	.+16     	; 0x247e <atoi+0x2a>
    246e:	2d 32       	cpi	r18, 0x2D	; 45
    2470:	39 f4       	brne	.+14     	; 0x2480 <atoi+0x2c>
    2472:	68 94       	set
    2474:	04 c0       	rjmp	.+8      	; 0x247e <atoi+0x2a>
    2476:	0e 94 a0 12 	call	0x2540	; 0x2540 <__mulhi_const_10>
    247a:	82 0f       	add	r24, r18
    247c:	91 1d       	adc	r25, r1
    247e:	21 91       	ld	r18, Z+
    2480:	20 53       	subi	r18, 0x30	; 48
    2482:	2a 30       	cpi	r18, 0x0A	; 10
    2484:	c0 f3       	brcs	.-16     	; 0x2476 <atoi+0x22>
    2486:	1e f4       	brtc	.+6      	; 0x248e <atoi+0x3a>
    2488:	90 95       	com	r25
    248a:	81 95       	neg	r24
    248c:	9f 4f       	sbci	r25, 0xFF	; 255
    248e:	08 95       	ret

00002490 <isspace>:
    2490:	91 11       	cpse	r25, r1
    2492:	0c 94 3b 15 	jmp	0x2a76	; 0x2a76 <__ctype_isfalse>
    2496:	80 32       	cpi	r24, 0x20	; 32
    2498:	19 f0       	breq	.+6      	; 0x24a0 <isspace+0x10>
    249a:	89 50       	subi	r24, 0x09	; 9
    249c:	85 50       	subi	r24, 0x05	; 5
    249e:	c8 f7       	brcc	.-14     	; 0x2492 <isspace+0x2>
    24a0:	08 95       	ret

000024a2 <strncasecmp_P>:
    24a2:	fb 01       	movw	r30, r22
    24a4:	dc 01       	movw	r26, r24
    24a6:	41 50       	subi	r20, 0x01	; 1
    24a8:	50 40       	sbci	r21, 0x00	; 0
    24aa:	88 f0       	brcs	.+34     	; 0x24ce <strncasecmp_P+0x2c>
    24ac:	8d 91       	ld	r24, X+
    24ae:	81 34       	cpi	r24, 0x41	; 65
    24b0:	1c f0       	brlt	.+6      	; 0x24b8 <strncasecmp_P+0x16>
    24b2:	8b 35       	cpi	r24, 0x5B	; 91
    24b4:	0c f4       	brge	.+2      	; 0x24b8 <strncasecmp_P+0x16>
    24b6:	80 5e       	subi	r24, 0xE0	; 224
    24b8:	65 91       	lpm	r22, Z+
    24ba:	61 34       	cpi	r22, 0x41	; 65
    24bc:	1c f0       	brlt	.+6      	; 0x24c4 <strncasecmp_P+0x22>
    24be:	6b 35       	cpi	r22, 0x5B	; 91
    24c0:	0c f4       	brge	.+2      	; 0x24c4 <strncasecmp_P+0x22>
    24c2:	60 5e       	subi	r22, 0xE0	; 224
    24c4:	86 1b       	sub	r24, r22
    24c6:	61 11       	cpse	r22, r1
    24c8:	71 f3       	breq	.-36     	; 0x24a6 <strncasecmp_P+0x4>
    24ca:	99 0b       	sbc	r25, r25
    24cc:	08 95       	ret
    24ce:	88 1b       	sub	r24, r24
    24d0:	fc cf       	rjmp	.-8      	; 0x24ca <strncasecmp_P+0x28>

000024d2 <strcmp>:
    24d2:	fb 01       	movw	r30, r22
    24d4:	dc 01       	movw	r26, r24
    24d6:	8d 91       	ld	r24, X+
    24d8:	01 90       	ld	r0, Z+
    24da:	80 19       	sub	r24, r0
    24dc:	01 10       	cpse	r0, r1
    24de:	d9 f3       	breq	.-10     	; 0x24d6 <strcmp+0x4>
    24e0:	99 0b       	sbc	r25, r25
    24e2:	08 95       	ret

000024e4 <strcpy>:
    24e4:	fb 01       	movw	r30, r22
    24e6:	dc 01       	movw	r26, r24
    24e8:	01 90       	ld	r0, Z+
    24ea:	0d 92       	st	X+, r0
    24ec:	00 20       	and	r0, r0
    24ee:	e1 f7       	brne	.-8      	; 0x24e8 <strcpy+0x4>
    24f0:	08 95       	ret

000024f2 <strtok_r>:
    24f2:	fa 01       	movw	r30, r20
    24f4:	a1 91       	ld	r26, Z+
    24f6:	b0 81       	ld	r27, Z
    24f8:	00 97       	sbiw	r24, 0x00	; 0
    24fa:	19 f4       	brne	.+6      	; 0x2502 <strtok_r+0x10>
    24fc:	10 97       	sbiw	r26, 0x00	; 0
    24fe:	e1 f0       	breq	.+56     	; 0x2538 <strtok_r+0x46>
    2500:	cd 01       	movw	r24, r26
    2502:	dc 01       	movw	r26, r24
    2504:	cd 01       	movw	r24, r26
    2506:	0d 90       	ld	r0, X+
    2508:	00 20       	and	r0, r0
    250a:	11 f4       	brne	.+4      	; 0x2510 <strtok_r+0x1e>
    250c:	c0 01       	movw	r24, r0
    250e:	13 c0       	rjmp	.+38     	; 0x2536 <strtok_r+0x44>
    2510:	fb 01       	movw	r30, r22
    2512:	21 91       	ld	r18, Z+
    2514:	22 23       	and	r18, r18
    2516:	19 f0       	breq	.+6      	; 0x251e <strtok_r+0x2c>
    2518:	20 15       	cp	r18, r0
    251a:	d9 f7       	brne	.-10     	; 0x2512 <strtok_r+0x20>
    251c:	f3 cf       	rjmp	.-26     	; 0x2504 <strtok_r+0x12>
    251e:	fb 01       	movw	r30, r22
    2520:	21 91       	ld	r18, Z+
    2522:	20 15       	cp	r18, r0
    2524:	19 f4       	brne	.+6      	; 0x252c <strtok_r+0x3a>
    2526:	1e 92       	st	-X, r1
    2528:	11 96       	adiw	r26, 0x01	; 1
    252a:	06 c0       	rjmp	.+12     	; 0x2538 <strtok_r+0x46>
    252c:	22 23       	and	r18, r18
    252e:	c1 f7       	brne	.-16     	; 0x2520 <strtok_r+0x2e>
    2530:	0d 90       	ld	r0, X+
    2532:	00 20       	and	r0, r0
    2534:	a1 f7       	brne	.-24     	; 0x251e <strtok_r+0x2c>
    2536:	d0 01       	movw	r26, r0
    2538:	fa 01       	movw	r30, r20
    253a:	a1 93       	st	Z+, r26
    253c:	b0 83       	st	Z, r27
    253e:	08 95       	ret

00002540 <__mulhi_const_10>:
    2540:	7a e0       	ldi	r23, 0x0A	; 10
    2542:	97 9f       	mul	r25, r23
    2544:	90 2d       	mov	r25, r0
    2546:	87 9f       	mul	r24, r23
    2548:	80 2d       	mov	r24, r0
    254a:	91 0d       	add	r25, r1
    254c:	11 24       	eor	r1, r1
    254e:	08 95       	ret

00002550 <vsnprintf>:
    2550:	0f 93       	push	r16
    2552:	1f 93       	push	r17
    2554:	cf 93       	push	r28
    2556:	df 93       	push	r29
    2558:	cd b7       	in	r28, 0x3d	; 61
    255a:	de b7       	in	r29, 0x3e	; 62
    255c:	2e 97       	sbiw	r28, 0x0e	; 14
    255e:	cd bf       	out	0x3d, r28	; 61
    2560:	de bf       	out	0x3e, r29	; 62
    2562:	8c 01       	movw	r16, r24
    2564:	fa 01       	movw	r30, r20
    2566:	86 e0       	ldi	r24, 0x06	; 6
    2568:	8c 83       	std	Y+4, r24	; 0x04
    256a:	09 83       	std	Y+1, r16	; 0x01
    256c:	1a 83       	std	Y+2, r17	; 0x02
    256e:	77 ff       	sbrs	r23, 7
    2570:	02 c0       	rjmp	.+4      	; 0x2576 <vsnprintf+0x26>
    2572:	60 e0       	ldi	r22, 0x00	; 0
    2574:	70 e8       	ldi	r23, 0x80	; 128
    2576:	cb 01       	movw	r24, r22
    2578:	01 97       	sbiw	r24, 0x01	; 1
    257a:	8d 83       	std	Y+5, r24	; 0x05
    257c:	9e 83       	std	Y+6, r25	; 0x06
    257e:	a9 01       	movw	r20, r18
    2580:	bf 01       	movw	r22, r30
    2582:	ce 01       	movw	r24, r28
    2584:	01 96       	adiw	r24, 0x01	; 1
    2586:	0e 94 37 13 	call	0x266e	; 0x266e <vfprintf>
    258a:	4d 81       	ldd	r20, Y+5	; 0x05
    258c:	5e 81       	ldd	r21, Y+6	; 0x06
    258e:	57 fd       	sbrc	r21, 7
    2590:	0a c0       	rjmp	.+20     	; 0x25a6 <vsnprintf+0x56>
    2592:	2f 81       	ldd	r18, Y+7	; 0x07
    2594:	38 85       	ldd	r19, Y+8	; 0x08
    2596:	42 17       	cp	r20, r18
    2598:	53 07       	cpc	r21, r19
    259a:	0c f4       	brge	.+2      	; 0x259e <vsnprintf+0x4e>
    259c:	9a 01       	movw	r18, r20
    259e:	f8 01       	movw	r30, r16
    25a0:	e2 0f       	add	r30, r18
    25a2:	f3 1f       	adc	r31, r19
    25a4:	10 82       	st	Z, r1
    25a6:	2e 96       	adiw	r28, 0x0e	; 14
    25a8:	cd bf       	out	0x3d, r28	; 61
    25aa:	de bf       	out	0x3e, r29	; 62
    25ac:	df 91       	pop	r29
    25ae:	cf 91       	pop	r28
    25b0:	1f 91       	pop	r17
    25b2:	0f 91       	pop	r16
    25b4:	08 95       	ret

000025b6 <vsnprintf_P>:
    25b6:	0f 93       	push	r16
    25b8:	1f 93       	push	r17
    25ba:	cf 93       	push	r28
    25bc:	df 93       	push	r29
    25be:	cd b7       	in	r28, 0x3d	; 61
    25c0:	de b7       	in	r29, 0x3e	; 62
    25c2:	2e 97       	sbiw	r28, 0x0e	; 14
    25c4:	cd bf       	out	0x3d, r28	; 61
    25c6:	de bf       	out	0x3e, r29	; 62
    25c8:	8c 01       	movw	r16, r24
    25ca:	fa 01       	movw	r30, r20
    25cc:	8e e0       	ldi	r24, 0x0E	; 14
    25ce:	8c 83       	std	Y+4, r24	; 0x04
    25d0:	09 83       	std	Y+1, r16	; 0x01
    25d2:	1a 83       	std	Y+2, r17	; 0x02
    25d4:	77 ff       	sbrs	r23, 7
    25d6:	02 c0       	rjmp	.+4      	; 0x25dc <vsnprintf_P+0x26>
    25d8:	60 e0       	ldi	r22, 0x00	; 0
    25da:	70 e8       	ldi	r23, 0x80	; 128
    25dc:	cb 01       	movw	r24, r22
    25de:	01 97       	sbiw	r24, 0x01	; 1
    25e0:	8d 83       	std	Y+5, r24	; 0x05
    25e2:	9e 83       	std	Y+6, r25	; 0x06
    25e4:	a9 01       	movw	r20, r18
    25e6:	bf 01       	movw	r22, r30
    25e8:	ce 01       	movw	r24, r28
    25ea:	01 96       	adiw	r24, 0x01	; 1
    25ec:	0e 94 37 13 	call	0x266e	; 0x266e <vfprintf>
    25f0:	4d 81       	ldd	r20, Y+5	; 0x05
    25f2:	5e 81       	ldd	r21, Y+6	; 0x06
    25f4:	57 fd       	sbrc	r21, 7
    25f6:	0a c0       	rjmp	.+20     	; 0x260c <vsnprintf_P+0x56>
    25f8:	2f 81       	ldd	r18, Y+7	; 0x07
    25fa:	38 85       	ldd	r19, Y+8	; 0x08
    25fc:	42 17       	cp	r20, r18
    25fe:	53 07       	cpc	r21, r19
    2600:	0c f4       	brge	.+2      	; 0x2604 <vsnprintf_P+0x4e>
    2602:	9a 01       	movw	r18, r20
    2604:	f8 01       	movw	r30, r16
    2606:	e2 0f       	add	r30, r18
    2608:	f3 1f       	adc	r31, r19
    260a:	10 82       	st	Z, r1
    260c:	2e 96       	adiw	r28, 0x0e	; 14
    260e:	cd bf       	out	0x3d, r28	; 61
    2610:	de bf       	out	0x3e, r29	; 62
    2612:	df 91       	pop	r29
    2614:	cf 91       	pop	r28
    2616:	1f 91       	pop	r17
    2618:	0f 91       	pop	r16
    261a:	08 95       	ret

0000261c <__cmpsf2>:
    261c:	0e 94 13 13 	call	0x2626	; 0x2626 <__fp_cmp>
    2620:	08 f4       	brcc	.+2      	; 0x2624 <__cmpsf2+0x8>
    2622:	81 e0       	ldi	r24, 0x01	; 1
    2624:	08 95       	ret

00002626 <__fp_cmp>:
    2626:	99 0f       	add	r25, r25
    2628:	00 08       	sbc	r0, r0
    262a:	55 0f       	add	r21, r21
    262c:	aa 0b       	sbc	r26, r26
    262e:	e0 e8       	ldi	r30, 0x80	; 128
    2630:	fe ef       	ldi	r31, 0xFE	; 254
    2632:	16 16       	cp	r1, r22
    2634:	17 06       	cpc	r1, r23
    2636:	e8 07       	cpc	r30, r24
    2638:	f9 07       	cpc	r31, r25
    263a:	c0 f0       	brcs	.+48     	; 0x266c <__fp_cmp+0x46>
    263c:	12 16       	cp	r1, r18
    263e:	13 06       	cpc	r1, r19
    2640:	e4 07       	cpc	r30, r20
    2642:	f5 07       	cpc	r31, r21
    2644:	98 f0       	brcs	.+38     	; 0x266c <__fp_cmp+0x46>
    2646:	62 1b       	sub	r22, r18
    2648:	73 0b       	sbc	r23, r19
    264a:	84 0b       	sbc	r24, r20
    264c:	95 0b       	sbc	r25, r21
    264e:	39 f4       	brne	.+14     	; 0x265e <__fp_cmp+0x38>
    2650:	0a 26       	eor	r0, r26
    2652:	61 f0       	breq	.+24     	; 0x266c <__fp_cmp+0x46>
    2654:	23 2b       	or	r18, r19
    2656:	24 2b       	or	r18, r20
    2658:	25 2b       	or	r18, r21
    265a:	21 f4       	brne	.+8      	; 0x2664 <__fp_cmp+0x3e>
    265c:	08 95       	ret
    265e:	0a 26       	eor	r0, r26
    2660:	09 f4       	brne	.+2      	; 0x2664 <__fp_cmp+0x3e>
    2662:	a1 40       	sbci	r26, 0x01	; 1
    2664:	a6 95       	lsr	r26
    2666:	8f ef       	ldi	r24, 0xFF	; 255
    2668:	81 1d       	adc	r24, r1
    266a:	81 1d       	adc	r24, r1
    266c:	08 95       	ret

0000266e <vfprintf>:
    266e:	2f 92       	push	r2
    2670:	3f 92       	push	r3
    2672:	4f 92       	push	r4
    2674:	5f 92       	push	r5
    2676:	6f 92       	push	r6
    2678:	7f 92       	push	r7
    267a:	8f 92       	push	r8
    267c:	9f 92       	push	r9
    267e:	af 92       	push	r10
    2680:	bf 92       	push	r11
    2682:	cf 92       	push	r12
    2684:	df 92       	push	r13
    2686:	ef 92       	push	r14
    2688:	ff 92       	push	r15
    268a:	0f 93       	push	r16
    268c:	1f 93       	push	r17
    268e:	cf 93       	push	r28
    2690:	df 93       	push	r29
    2692:	cd b7       	in	r28, 0x3d	; 61
    2694:	de b7       	in	r29, 0x3e	; 62
    2696:	2b 97       	sbiw	r28, 0x0b	; 11
    2698:	cd bf       	out	0x3d, r28	; 61
    269a:	de bf       	out	0x3e, r29	; 62
    269c:	6c 01       	movw	r12, r24
    269e:	7b 01       	movw	r14, r22
    26a0:	8a 01       	movw	r16, r20
    26a2:	fc 01       	movw	r30, r24
    26a4:	16 82       	std	Z+6, r1	; 0x06
    26a6:	17 82       	std	Z+7, r1	; 0x07
    26a8:	83 81       	ldd	r24, Z+3	; 0x03
    26aa:	81 ff       	sbrs	r24, 1
    26ac:	cc c1       	rjmp	.+920    	; 0x2a46 <vfprintf+0x3d8>
    26ae:	ce 01       	movw	r24, r28
    26b0:	01 96       	adiw	r24, 0x01	; 1
    26b2:	3c 01       	movw	r6, r24
    26b4:	f6 01       	movw	r30, r12
    26b6:	93 81       	ldd	r25, Z+3	; 0x03
    26b8:	f7 01       	movw	r30, r14
    26ba:	93 fd       	sbrc	r25, 3
    26bc:	85 91       	lpm	r24, Z+
    26be:	93 ff       	sbrs	r25, 3
    26c0:	81 91       	ld	r24, Z+
    26c2:	7f 01       	movw	r14, r30
    26c4:	88 23       	and	r24, r24
    26c6:	09 f4       	brne	.+2      	; 0x26ca <vfprintf+0x5c>
    26c8:	ba c1       	rjmp	.+884    	; 0x2a3e <vfprintf+0x3d0>
    26ca:	85 32       	cpi	r24, 0x25	; 37
    26cc:	39 f4       	brne	.+14     	; 0x26dc <vfprintf+0x6e>
    26ce:	93 fd       	sbrc	r25, 3
    26d0:	85 91       	lpm	r24, Z+
    26d2:	93 ff       	sbrs	r25, 3
    26d4:	81 91       	ld	r24, Z+
    26d6:	7f 01       	movw	r14, r30
    26d8:	85 32       	cpi	r24, 0x25	; 37
    26da:	29 f4       	brne	.+10     	; 0x26e6 <vfprintf+0x78>
    26dc:	b6 01       	movw	r22, r12
    26de:	90 e0       	ldi	r25, 0x00	; 0
    26e0:	0e 94 54 15 	call	0x2aa8	; 0x2aa8 <fputc>
    26e4:	e7 cf       	rjmp	.-50     	; 0x26b4 <vfprintf+0x46>
    26e6:	91 2c       	mov	r9, r1
    26e8:	21 2c       	mov	r2, r1
    26ea:	31 2c       	mov	r3, r1
    26ec:	ff e1       	ldi	r31, 0x1F	; 31
    26ee:	f3 15       	cp	r31, r3
    26f0:	d8 f0       	brcs	.+54     	; 0x2728 <vfprintf+0xba>
    26f2:	8b 32       	cpi	r24, 0x2B	; 43
    26f4:	79 f0       	breq	.+30     	; 0x2714 <vfprintf+0xa6>
    26f6:	38 f4       	brcc	.+14     	; 0x2706 <vfprintf+0x98>
    26f8:	80 32       	cpi	r24, 0x20	; 32
    26fa:	79 f0       	breq	.+30     	; 0x271a <vfprintf+0xac>
    26fc:	83 32       	cpi	r24, 0x23	; 35
    26fe:	a1 f4       	brne	.+40     	; 0x2728 <vfprintf+0xba>
    2700:	23 2d       	mov	r18, r3
    2702:	20 61       	ori	r18, 0x10	; 16
    2704:	1d c0       	rjmp	.+58     	; 0x2740 <vfprintf+0xd2>
    2706:	8d 32       	cpi	r24, 0x2D	; 45
    2708:	61 f0       	breq	.+24     	; 0x2722 <vfprintf+0xb4>
    270a:	80 33       	cpi	r24, 0x30	; 48
    270c:	69 f4       	brne	.+26     	; 0x2728 <vfprintf+0xba>
    270e:	23 2d       	mov	r18, r3
    2710:	21 60       	ori	r18, 0x01	; 1
    2712:	16 c0       	rjmp	.+44     	; 0x2740 <vfprintf+0xd2>
    2714:	83 2d       	mov	r24, r3
    2716:	82 60       	ori	r24, 0x02	; 2
    2718:	38 2e       	mov	r3, r24
    271a:	e3 2d       	mov	r30, r3
    271c:	e4 60       	ori	r30, 0x04	; 4
    271e:	3e 2e       	mov	r3, r30
    2720:	2a c0       	rjmp	.+84     	; 0x2776 <vfprintf+0x108>
    2722:	f3 2d       	mov	r31, r3
    2724:	f8 60       	ori	r31, 0x08	; 8
    2726:	1d c0       	rjmp	.+58     	; 0x2762 <vfprintf+0xf4>
    2728:	37 fc       	sbrc	r3, 7
    272a:	2d c0       	rjmp	.+90     	; 0x2786 <vfprintf+0x118>
    272c:	20 ed       	ldi	r18, 0xD0	; 208
    272e:	28 0f       	add	r18, r24
    2730:	2a 30       	cpi	r18, 0x0A	; 10
    2732:	40 f0       	brcs	.+16     	; 0x2744 <vfprintf+0xd6>
    2734:	8e 32       	cpi	r24, 0x2E	; 46
    2736:	b9 f4       	brne	.+46     	; 0x2766 <vfprintf+0xf8>
    2738:	36 fc       	sbrc	r3, 6
    273a:	81 c1       	rjmp	.+770    	; 0x2a3e <vfprintf+0x3d0>
    273c:	23 2d       	mov	r18, r3
    273e:	20 64       	ori	r18, 0x40	; 64
    2740:	32 2e       	mov	r3, r18
    2742:	19 c0       	rjmp	.+50     	; 0x2776 <vfprintf+0x108>
    2744:	36 fe       	sbrs	r3, 6
    2746:	06 c0       	rjmp	.+12     	; 0x2754 <vfprintf+0xe6>
    2748:	8a e0       	ldi	r24, 0x0A	; 10
    274a:	98 9e       	mul	r9, r24
    274c:	20 0d       	add	r18, r0
    274e:	11 24       	eor	r1, r1
    2750:	92 2e       	mov	r9, r18
    2752:	11 c0       	rjmp	.+34     	; 0x2776 <vfprintf+0x108>
    2754:	ea e0       	ldi	r30, 0x0A	; 10
    2756:	2e 9e       	mul	r2, r30
    2758:	20 0d       	add	r18, r0
    275a:	11 24       	eor	r1, r1
    275c:	22 2e       	mov	r2, r18
    275e:	f3 2d       	mov	r31, r3
    2760:	f0 62       	ori	r31, 0x20	; 32
    2762:	3f 2e       	mov	r3, r31
    2764:	08 c0       	rjmp	.+16     	; 0x2776 <vfprintf+0x108>
    2766:	8c 36       	cpi	r24, 0x6C	; 108
    2768:	21 f4       	brne	.+8      	; 0x2772 <vfprintf+0x104>
    276a:	83 2d       	mov	r24, r3
    276c:	80 68       	ori	r24, 0x80	; 128
    276e:	38 2e       	mov	r3, r24
    2770:	02 c0       	rjmp	.+4      	; 0x2776 <vfprintf+0x108>
    2772:	88 36       	cpi	r24, 0x68	; 104
    2774:	41 f4       	brne	.+16     	; 0x2786 <vfprintf+0x118>
    2776:	f7 01       	movw	r30, r14
    2778:	93 fd       	sbrc	r25, 3
    277a:	85 91       	lpm	r24, Z+
    277c:	93 ff       	sbrs	r25, 3
    277e:	81 91       	ld	r24, Z+
    2780:	7f 01       	movw	r14, r30
    2782:	81 11       	cpse	r24, r1
    2784:	b3 cf       	rjmp	.-154    	; 0x26ec <vfprintf+0x7e>
    2786:	98 2f       	mov	r25, r24
    2788:	9f 7d       	andi	r25, 0xDF	; 223
    278a:	95 54       	subi	r25, 0x45	; 69
    278c:	93 30       	cpi	r25, 0x03	; 3
    278e:	28 f4       	brcc	.+10     	; 0x279a <vfprintf+0x12c>
    2790:	0c 5f       	subi	r16, 0xFC	; 252
    2792:	1f 4f       	sbci	r17, 0xFF	; 255
    2794:	9f e3       	ldi	r25, 0x3F	; 63
    2796:	99 83       	std	Y+1, r25	; 0x01
    2798:	0d c0       	rjmp	.+26     	; 0x27b4 <vfprintf+0x146>
    279a:	83 36       	cpi	r24, 0x63	; 99
    279c:	31 f0       	breq	.+12     	; 0x27aa <vfprintf+0x13c>
    279e:	83 37       	cpi	r24, 0x73	; 115
    27a0:	71 f0       	breq	.+28     	; 0x27be <vfprintf+0x150>
    27a2:	83 35       	cpi	r24, 0x53	; 83
    27a4:	09 f0       	breq	.+2      	; 0x27a8 <vfprintf+0x13a>
    27a6:	59 c0       	rjmp	.+178    	; 0x285a <vfprintf+0x1ec>
    27a8:	21 c0       	rjmp	.+66     	; 0x27ec <vfprintf+0x17e>
    27aa:	f8 01       	movw	r30, r16
    27ac:	80 81       	ld	r24, Z
    27ae:	89 83       	std	Y+1, r24	; 0x01
    27b0:	0e 5f       	subi	r16, 0xFE	; 254
    27b2:	1f 4f       	sbci	r17, 0xFF	; 255
    27b4:	88 24       	eor	r8, r8
    27b6:	83 94       	inc	r8
    27b8:	91 2c       	mov	r9, r1
    27ba:	53 01       	movw	r10, r6
    27bc:	13 c0       	rjmp	.+38     	; 0x27e4 <vfprintf+0x176>
    27be:	28 01       	movw	r4, r16
    27c0:	f2 e0       	ldi	r31, 0x02	; 2
    27c2:	4f 0e       	add	r4, r31
    27c4:	51 1c       	adc	r5, r1
    27c6:	f8 01       	movw	r30, r16
    27c8:	a0 80       	ld	r10, Z
    27ca:	b1 80       	ldd	r11, Z+1	; 0x01
    27cc:	36 fe       	sbrs	r3, 6
    27ce:	03 c0       	rjmp	.+6      	; 0x27d6 <vfprintf+0x168>
    27d0:	69 2d       	mov	r22, r9
    27d2:	70 e0       	ldi	r23, 0x00	; 0
    27d4:	02 c0       	rjmp	.+4      	; 0x27da <vfprintf+0x16c>
    27d6:	6f ef       	ldi	r22, 0xFF	; 255
    27d8:	7f ef       	ldi	r23, 0xFF	; 255
    27da:	c5 01       	movw	r24, r10
    27dc:	0e 94 49 15 	call	0x2a92	; 0x2a92 <strnlen>
    27e0:	4c 01       	movw	r8, r24
    27e2:	82 01       	movw	r16, r4
    27e4:	f3 2d       	mov	r31, r3
    27e6:	ff 77       	andi	r31, 0x7F	; 127
    27e8:	3f 2e       	mov	r3, r31
    27ea:	16 c0       	rjmp	.+44     	; 0x2818 <vfprintf+0x1aa>
    27ec:	28 01       	movw	r4, r16
    27ee:	22 e0       	ldi	r18, 0x02	; 2
    27f0:	42 0e       	add	r4, r18
    27f2:	51 1c       	adc	r5, r1
    27f4:	f8 01       	movw	r30, r16
    27f6:	a0 80       	ld	r10, Z
    27f8:	b1 80       	ldd	r11, Z+1	; 0x01
    27fa:	36 fe       	sbrs	r3, 6
    27fc:	03 c0       	rjmp	.+6      	; 0x2804 <vfprintf+0x196>
    27fe:	69 2d       	mov	r22, r9
    2800:	70 e0       	ldi	r23, 0x00	; 0
    2802:	02 c0       	rjmp	.+4      	; 0x2808 <vfprintf+0x19a>
    2804:	6f ef       	ldi	r22, 0xFF	; 255
    2806:	7f ef       	ldi	r23, 0xFF	; 255
    2808:	c5 01       	movw	r24, r10
    280a:	0e 94 3e 15 	call	0x2a7c	; 0x2a7c <strnlen_P>
    280e:	4c 01       	movw	r8, r24
    2810:	f3 2d       	mov	r31, r3
    2812:	f0 68       	ori	r31, 0x80	; 128
    2814:	3f 2e       	mov	r3, r31
    2816:	82 01       	movw	r16, r4
    2818:	33 fc       	sbrc	r3, 3
    281a:	1b c0       	rjmp	.+54     	; 0x2852 <vfprintf+0x1e4>
    281c:	82 2d       	mov	r24, r2
    281e:	90 e0       	ldi	r25, 0x00	; 0
    2820:	88 16       	cp	r8, r24
    2822:	99 06       	cpc	r9, r25
    2824:	b0 f4       	brcc	.+44     	; 0x2852 <vfprintf+0x1e4>
    2826:	b6 01       	movw	r22, r12
    2828:	80 e2       	ldi	r24, 0x20	; 32
    282a:	90 e0       	ldi	r25, 0x00	; 0
    282c:	0e 94 54 15 	call	0x2aa8	; 0x2aa8 <fputc>
    2830:	2a 94       	dec	r2
    2832:	f4 cf       	rjmp	.-24     	; 0x281c <vfprintf+0x1ae>
    2834:	f5 01       	movw	r30, r10
    2836:	37 fc       	sbrc	r3, 7
    2838:	85 91       	lpm	r24, Z+
    283a:	37 fe       	sbrs	r3, 7
    283c:	81 91       	ld	r24, Z+
    283e:	5f 01       	movw	r10, r30
    2840:	b6 01       	movw	r22, r12
    2842:	90 e0       	ldi	r25, 0x00	; 0
    2844:	0e 94 54 15 	call	0x2aa8	; 0x2aa8 <fputc>
    2848:	21 10       	cpse	r2, r1
    284a:	2a 94       	dec	r2
    284c:	21 e0       	ldi	r18, 0x01	; 1
    284e:	82 1a       	sub	r8, r18
    2850:	91 08       	sbc	r9, r1
    2852:	81 14       	cp	r8, r1
    2854:	91 04       	cpc	r9, r1
    2856:	71 f7       	brne	.-36     	; 0x2834 <vfprintf+0x1c6>
    2858:	e8 c0       	rjmp	.+464    	; 0x2a2a <vfprintf+0x3bc>
    285a:	84 36       	cpi	r24, 0x64	; 100
    285c:	11 f0       	breq	.+4      	; 0x2862 <vfprintf+0x1f4>
    285e:	89 36       	cpi	r24, 0x69	; 105
    2860:	41 f5       	brne	.+80     	; 0x28b2 <vfprintf+0x244>
    2862:	f8 01       	movw	r30, r16
    2864:	37 fe       	sbrs	r3, 7
    2866:	07 c0       	rjmp	.+14     	; 0x2876 <vfprintf+0x208>
    2868:	60 81       	ld	r22, Z
    286a:	71 81       	ldd	r23, Z+1	; 0x01
    286c:	82 81       	ldd	r24, Z+2	; 0x02
    286e:	93 81       	ldd	r25, Z+3	; 0x03
    2870:	0c 5f       	subi	r16, 0xFC	; 252
    2872:	1f 4f       	sbci	r17, 0xFF	; 255
    2874:	08 c0       	rjmp	.+16     	; 0x2886 <vfprintf+0x218>
    2876:	60 81       	ld	r22, Z
    2878:	71 81       	ldd	r23, Z+1	; 0x01
    287a:	07 2e       	mov	r0, r23
    287c:	00 0c       	add	r0, r0
    287e:	88 0b       	sbc	r24, r24
    2880:	99 0b       	sbc	r25, r25
    2882:	0e 5f       	subi	r16, 0xFE	; 254
    2884:	1f 4f       	sbci	r17, 0xFF	; 255
    2886:	f3 2d       	mov	r31, r3
    2888:	ff 76       	andi	r31, 0x6F	; 111
    288a:	3f 2e       	mov	r3, r31
    288c:	97 ff       	sbrs	r25, 7
    288e:	09 c0       	rjmp	.+18     	; 0x28a2 <vfprintf+0x234>
    2890:	90 95       	com	r25
    2892:	80 95       	com	r24
    2894:	70 95       	com	r23
    2896:	61 95       	neg	r22
    2898:	7f 4f       	sbci	r23, 0xFF	; 255
    289a:	8f 4f       	sbci	r24, 0xFF	; 255
    289c:	9f 4f       	sbci	r25, 0xFF	; 255
    289e:	f0 68       	ori	r31, 0x80	; 128
    28a0:	3f 2e       	mov	r3, r31
    28a2:	2a e0       	ldi	r18, 0x0A	; 10
    28a4:	30 e0       	ldi	r19, 0x00	; 0
    28a6:	a3 01       	movw	r20, r6
    28a8:	0e 94 90 15 	call	0x2b20	; 0x2b20 <__ultoa_invert>
    28ac:	88 2e       	mov	r8, r24
    28ae:	86 18       	sub	r8, r6
    28b0:	45 c0       	rjmp	.+138    	; 0x293c <vfprintf+0x2ce>
    28b2:	85 37       	cpi	r24, 0x75	; 117
    28b4:	31 f4       	brne	.+12     	; 0x28c2 <vfprintf+0x254>
    28b6:	23 2d       	mov	r18, r3
    28b8:	2f 7e       	andi	r18, 0xEF	; 239
    28ba:	b2 2e       	mov	r11, r18
    28bc:	2a e0       	ldi	r18, 0x0A	; 10
    28be:	30 e0       	ldi	r19, 0x00	; 0
    28c0:	25 c0       	rjmp	.+74     	; 0x290c <vfprintf+0x29e>
    28c2:	93 2d       	mov	r25, r3
    28c4:	99 7f       	andi	r25, 0xF9	; 249
    28c6:	b9 2e       	mov	r11, r25
    28c8:	8f 36       	cpi	r24, 0x6F	; 111
    28ca:	c1 f0       	breq	.+48     	; 0x28fc <vfprintf+0x28e>
    28cc:	18 f4       	brcc	.+6      	; 0x28d4 <vfprintf+0x266>
    28ce:	88 35       	cpi	r24, 0x58	; 88
    28d0:	79 f0       	breq	.+30     	; 0x28f0 <vfprintf+0x282>
    28d2:	b5 c0       	rjmp	.+362    	; 0x2a3e <vfprintf+0x3d0>
    28d4:	80 37       	cpi	r24, 0x70	; 112
    28d6:	19 f0       	breq	.+6      	; 0x28de <vfprintf+0x270>
    28d8:	88 37       	cpi	r24, 0x78	; 120
    28da:	21 f0       	breq	.+8      	; 0x28e4 <vfprintf+0x276>
    28dc:	b0 c0       	rjmp	.+352    	; 0x2a3e <vfprintf+0x3d0>
    28de:	e9 2f       	mov	r30, r25
    28e0:	e0 61       	ori	r30, 0x10	; 16
    28e2:	be 2e       	mov	r11, r30
    28e4:	b4 fe       	sbrs	r11, 4
    28e6:	0d c0       	rjmp	.+26     	; 0x2902 <vfprintf+0x294>
    28e8:	fb 2d       	mov	r31, r11
    28ea:	f4 60       	ori	r31, 0x04	; 4
    28ec:	bf 2e       	mov	r11, r31
    28ee:	09 c0       	rjmp	.+18     	; 0x2902 <vfprintf+0x294>
    28f0:	34 fe       	sbrs	r3, 4
    28f2:	0a c0       	rjmp	.+20     	; 0x2908 <vfprintf+0x29a>
    28f4:	29 2f       	mov	r18, r25
    28f6:	26 60       	ori	r18, 0x06	; 6
    28f8:	b2 2e       	mov	r11, r18
    28fa:	06 c0       	rjmp	.+12     	; 0x2908 <vfprintf+0x29a>
    28fc:	28 e0       	ldi	r18, 0x08	; 8
    28fe:	30 e0       	ldi	r19, 0x00	; 0
    2900:	05 c0       	rjmp	.+10     	; 0x290c <vfprintf+0x29e>
    2902:	20 e1       	ldi	r18, 0x10	; 16
    2904:	30 e0       	ldi	r19, 0x00	; 0
    2906:	02 c0       	rjmp	.+4      	; 0x290c <vfprintf+0x29e>
    2908:	20 e1       	ldi	r18, 0x10	; 16
    290a:	32 e0       	ldi	r19, 0x02	; 2
    290c:	f8 01       	movw	r30, r16
    290e:	b7 fe       	sbrs	r11, 7
    2910:	07 c0       	rjmp	.+14     	; 0x2920 <vfprintf+0x2b2>
    2912:	60 81       	ld	r22, Z
    2914:	71 81       	ldd	r23, Z+1	; 0x01
    2916:	82 81       	ldd	r24, Z+2	; 0x02
    2918:	93 81       	ldd	r25, Z+3	; 0x03
    291a:	0c 5f       	subi	r16, 0xFC	; 252
    291c:	1f 4f       	sbci	r17, 0xFF	; 255
    291e:	06 c0       	rjmp	.+12     	; 0x292c <vfprintf+0x2be>
    2920:	60 81       	ld	r22, Z
    2922:	71 81       	ldd	r23, Z+1	; 0x01
    2924:	80 e0       	ldi	r24, 0x00	; 0
    2926:	90 e0       	ldi	r25, 0x00	; 0
    2928:	0e 5f       	subi	r16, 0xFE	; 254
    292a:	1f 4f       	sbci	r17, 0xFF	; 255
    292c:	a3 01       	movw	r20, r6
    292e:	0e 94 90 15 	call	0x2b20	; 0x2b20 <__ultoa_invert>
    2932:	88 2e       	mov	r8, r24
    2934:	86 18       	sub	r8, r6
    2936:	fb 2d       	mov	r31, r11
    2938:	ff 77       	andi	r31, 0x7F	; 127
    293a:	3f 2e       	mov	r3, r31
    293c:	36 fe       	sbrs	r3, 6
    293e:	0d c0       	rjmp	.+26     	; 0x295a <vfprintf+0x2ec>
    2940:	23 2d       	mov	r18, r3
    2942:	2e 7f       	andi	r18, 0xFE	; 254
    2944:	a2 2e       	mov	r10, r18
    2946:	89 14       	cp	r8, r9
    2948:	58 f4       	brcc	.+22     	; 0x2960 <vfprintf+0x2f2>
    294a:	34 fe       	sbrs	r3, 4
    294c:	0b c0       	rjmp	.+22     	; 0x2964 <vfprintf+0x2f6>
    294e:	32 fc       	sbrc	r3, 2
    2950:	09 c0       	rjmp	.+18     	; 0x2964 <vfprintf+0x2f6>
    2952:	83 2d       	mov	r24, r3
    2954:	8e 7e       	andi	r24, 0xEE	; 238
    2956:	a8 2e       	mov	r10, r24
    2958:	05 c0       	rjmp	.+10     	; 0x2964 <vfprintf+0x2f6>
    295a:	b8 2c       	mov	r11, r8
    295c:	a3 2c       	mov	r10, r3
    295e:	03 c0       	rjmp	.+6      	; 0x2966 <vfprintf+0x2f8>
    2960:	b8 2c       	mov	r11, r8
    2962:	01 c0       	rjmp	.+2      	; 0x2966 <vfprintf+0x2f8>
    2964:	b9 2c       	mov	r11, r9
    2966:	a4 fe       	sbrs	r10, 4
    2968:	0f c0       	rjmp	.+30     	; 0x2988 <vfprintf+0x31a>
    296a:	fe 01       	movw	r30, r28
    296c:	e8 0d       	add	r30, r8
    296e:	f1 1d       	adc	r31, r1
    2970:	80 81       	ld	r24, Z
    2972:	80 33       	cpi	r24, 0x30	; 48
    2974:	21 f4       	brne	.+8      	; 0x297e <vfprintf+0x310>
    2976:	9a 2d       	mov	r25, r10
    2978:	99 7e       	andi	r25, 0xE9	; 233
    297a:	a9 2e       	mov	r10, r25
    297c:	09 c0       	rjmp	.+18     	; 0x2990 <vfprintf+0x322>
    297e:	a2 fe       	sbrs	r10, 2
    2980:	06 c0       	rjmp	.+12     	; 0x298e <vfprintf+0x320>
    2982:	b3 94       	inc	r11
    2984:	b3 94       	inc	r11
    2986:	04 c0       	rjmp	.+8      	; 0x2990 <vfprintf+0x322>
    2988:	8a 2d       	mov	r24, r10
    298a:	86 78       	andi	r24, 0x86	; 134
    298c:	09 f0       	breq	.+2      	; 0x2990 <vfprintf+0x322>
    298e:	b3 94       	inc	r11
    2990:	a3 fc       	sbrc	r10, 3
    2992:	11 c0       	rjmp	.+34     	; 0x29b6 <vfprintf+0x348>
    2994:	a0 fe       	sbrs	r10, 0
    2996:	06 c0       	rjmp	.+12     	; 0x29a4 <vfprintf+0x336>
    2998:	b2 14       	cp	r11, r2
    299a:	88 f4       	brcc	.+34     	; 0x29be <vfprintf+0x350>
    299c:	28 0c       	add	r2, r8
    299e:	92 2c       	mov	r9, r2
    29a0:	9b 18       	sub	r9, r11
    29a2:	0e c0       	rjmp	.+28     	; 0x29c0 <vfprintf+0x352>
    29a4:	b2 14       	cp	r11, r2
    29a6:	60 f4       	brcc	.+24     	; 0x29c0 <vfprintf+0x352>
    29a8:	b6 01       	movw	r22, r12
    29aa:	80 e2       	ldi	r24, 0x20	; 32
    29ac:	90 e0       	ldi	r25, 0x00	; 0
    29ae:	0e 94 54 15 	call	0x2aa8	; 0x2aa8 <fputc>
    29b2:	b3 94       	inc	r11
    29b4:	f7 cf       	rjmp	.-18     	; 0x29a4 <vfprintf+0x336>
    29b6:	b2 14       	cp	r11, r2
    29b8:	18 f4       	brcc	.+6      	; 0x29c0 <vfprintf+0x352>
    29ba:	2b 18       	sub	r2, r11
    29bc:	02 c0       	rjmp	.+4      	; 0x29c2 <vfprintf+0x354>
    29be:	98 2c       	mov	r9, r8
    29c0:	21 2c       	mov	r2, r1
    29c2:	a4 fe       	sbrs	r10, 4
    29c4:	10 c0       	rjmp	.+32     	; 0x29e6 <vfprintf+0x378>
    29c6:	b6 01       	movw	r22, r12
    29c8:	80 e3       	ldi	r24, 0x30	; 48
    29ca:	90 e0       	ldi	r25, 0x00	; 0
    29cc:	0e 94 54 15 	call	0x2aa8	; 0x2aa8 <fputc>
    29d0:	a2 fe       	sbrs	r10, 2
    29d2:	17 c0       	rjmp	.+46     	; 0x2a02 <vfprintf+0x394>
    29d4:	a1 fc       	sbrc	r10, 1
    29d6:	03 c0       	rjmp	.+6      	; 0x29de <vfprintf+0x370>
    29d8:	88 e7       	ldi	r24, 0x78	; 120
    29da:	90 e0       	ldi	r25, 0x00	; 0
    29dc:	02 c0       	rjmp	.+4      	; 0x29e2 <vfprintf+0x374>
    29de:	88 e5       	ldi	r24, 0x58	; 88
    29e0:	90 e0       	ldi	r25, 0x00	; 0
    29e2:	b6 01       	movw	r22, r12
    29e4:	0c c0       	rjmp	.+24     	; 0x29fe <vfprintf+0x390>
    29e6:	8a 2d       	mov	r24, r10
    29e8:	86 78       	andi	r24, 0x86	; 134
    29ea:	59 f0       	breq	.+22     	; 0x2a02 <vfprintf+0x394>
    29ec:	a1 fe       	sbrs	r10, 1
    29ee:	02 c0       	rjmp	.+4      	; 0x29f4 <vfprintf+0x386>
    29f0:	8b e2       	ldi	r24, 0x2B	; 43
    29f2:	01 c0       	rjmp	.+2      	; 0x29f6 <vfprintf+0x388>
    29f4:	80 e2       	ldi	r24, 0x20	; 32
    29f6:	a7 fc       	sbrc	r10, 7
    29f8:	8d e2       	ldi	r24, 0x2D	; 45
    29fa:	b6 01       	movw	r22, r12
    29fc:	90 e0       	ldi	r25, 0x00	; 0
    29fe:	0e 94 54 15 	call	0x2aa8	; 0x2aa8 <fputc>
    2a02:	89 14       	cp	r8, r9
    2a04:	38 f4       	brcc	.+14     	; 0x2a14 <vfprintf+0x3a6>
    2a06:	b6 01       	movw	r22, r12
    2a08:	80 e3       	ldi	r24, 0x30	; 48
    2a0a:	90 e0       	ldi	r25, 0x00	; 0
    2a0c:	0e 94 54 15 	call	0x2aa8	; 0x2aa8 <fputc>
    2a10:	9a 94       	dec	r9
    2a12:	f7 cf       	rjmp	.-18     	; 0x2a02 <vfprintf+0x394>
    2a14:	8a 94       	dec	r8
    2a16:	f3 01       	movw	r30, r6
    2a18:	e8 0d       	add	r30, r8
    2a1a:	f1 1d       	adc	r31, r1
    2a1c:	80 81       	ld	r24, Z
    2a1e:	b6 01       	movw	r22, r12
    2a20:	90 e0       	ldi	r25, 0x00	; 0
    2a22:	0e 94 54 15 	call	0x2aa8	; 0x2aa8 <fputc>
    2a26:	81 10       	cpse	r8, r1
    2a28:	f5 cf       	rjmp	.-22     	; 0x2a14 <vfprintf+0x3a6>
    2a2a:	22 20       	and	r2, r2
    2a2c:	09 f4       	brne	.+2      	; 0x2a30 <vfprintf+0x3c2>
    2a2e:	42 ce       	rjmp	.-892    	; 0x26b4 <vfprintf+0x46>
    2a30:	b6 01       	movw	r22, r12
    2a32:	80 e2       	ldi	r24, 0x20	; 32
    2a34:	90 e0       	ldi	r25, 0x00	; 0
    2a36:	0e 94 54 15 	call	0x2aa8	; 0x2aa8 <fputc>
    2a3a:	2a 94       	dec	r2
    2a3c:	f6 cf       	rjmp	.-20     	; 0x2a2a <vfprintf+0x3bc>
    2a3e:	f6 01       	movw	r30, r12
    2a40:	86 81       	ldd	r24, Z+6	; 0x06
    2a42:	97 81       	ldd	r25, Z+7	; 0x07
    2a44:	02 c0       	rjmp	.+4      	; 0x2a4a <vfprintf+0x3dc>
    2a46:	8f ef       	ldi	r24, 0xFF	; 255
    2a48:	9f ef       	ldi	r25, 0xFF	; 255
    2a4a:	2b 96       	adiw	r28, 0x0b	; 11
    2a4c:	cd bf       	out	0x3d, r28	; 61
    2a4e:	de bf       	out	0x3e, r29	; 62
    2a50:	df 91       	pop	r29
    2a52:	cf 91       	pop	r28
    2a54:	1f 91       	pop	r17
    2a56:	0f 91       	pop	r16
    2a58:	ff 90       	pop	r15
    2a5a:	ef 90       	pop	r14
    2a5c:	df 90       	pop	r13
    2a5e:	cf 90       	pop	r12
    2a60:	bf 90       	pop	r11
    2a62:	af 90       	pop	r10
    2a64:	9f 90       	pop	r9
    2a66:	8f 90       	pop	r8
    2a68:	7f 90       	pop	r7
    2a6a:	6f 90       	pop	r6
    2a6c:	5f 90       	pop	r5
    2a6e:	4f 90       	pop	r4
    2a70:	3f 90       	pop	r3
    2a72:	2f 90       	pop	r2
    2a74:	08 95       	ret

00002a76 <__ctype_isfalse>:
    2a76:	99 27       	eor	r25, r25
    2a78:	88 27       	eor	r24, r24

00002a7a <__ctype_istrue>:
    2a7a:	08 95       	ret

00002a7c <strnlen_P>:
    2a7c:	fc 01       	movw	r30, r24
    2a7e:	05 90       	lpm	r0, Z+
    2a80:	61 50       	subi	r22, 0x01	; 1
    2a82:	70 40       	sbci	r23, 0x00	; 0
    2a84:	01 10       	cpse	r0, r1
    2a86:	d8 f7       	brcc	.-10     	; 0x2a7e <strnlen_P+0x2>
    2a88:	80 95       	com	r24
    2a8a:	90 95       	com	r25
    2a8c:	8e 0f       	add	r24, r30
    2a8e:	9f 1f       	adc	r25, r31
    2a90:	08 95       	ret

00002a92 <strnlen>:
    2a92:	fc 01       	movw	r30, r24
    2a94:	61 50       	subi	r22, 0x01	; 1
    2a96:	70 40       	sbci	r23, 0x00	; 0
    2a98:	01 90       	ld	r0, Z+
    2a9a:	01 10       	cpse	r0, r1
    2a9c:	d8 f7       	brcc	.-10     	; 0x2a94 <strnlen+0x2>
    2a9e:	80 95       	com	r24
    2aa0:	90 95       	com	r25
    2aa2:	8e 0f       	add	r24, r30
    2aa4:	9f 1f       	adc	r25, r31
    2aa6:	08 95       	ret

00002aa8 <fputc>:
    2aa8:	0f 93       	push	r16
    2aaa:	1f 93       	push	r17
    2aac:	cf 93       	push	r28
    2aae:	df 93       	push	r29
    2ab0:	fb 01       	movw	r30, r22
    2ab2:	23 81       	ldd	r18, Z+3	; 0x03
    2ab4:	21 fd       	sbrc	r18, 1
    2ab6:	03 c0       	rjmp	.+6      	; 0x2abe <fputc+0x16>
    2ab8:	8f ef       	ldi	r24, 0xFF	; 255
    2aba:	9f ef       	ldi	r25, 0xFF	; 255
    2abc:	2c c0       	rjmp	.+88     	; 0x2b16 <fputc+0x6e>
    2abe:	22 ff       	sbrs	r18, 2
    2ac0:	16 c0       	rjmp	.+44     	; 0x2aee <fputc+0x46>
    2ac2:	46 81       	ldd	r20, Z+6	; 0x06
    2ac4:	57 81       	ldd	r21, Z+7	; 0x07
    2ac6:	24 81       	ldd	r18, Z+4	; 0x04
    2ac8:	35 81       	ldd	r19, Z+5	; 0x05
    2aca:	42 17       	cp	r20, r18
    2acc:	53 07       	cpc	r21, r19
    2ace:	44 f4       	brge	.+16     	; 0x2ae0 <fputc+0x38>
    2ad0:	a0 81       	ld	r26, Z
    2ad2:	b1 81       	ldd	r27, Z+1	; 0x01
    2ad4:	9d 01       	movw	r18, r26
    2ad6:	2f 5f       	subi	r18, 0xFF	; 255
    2ad8:	3f 4f       	sbci	r19, 0xFF	; 255
    2ada:	20 83       	st	Z, r18
    2adc:	31 83       	std	Z+1, r19	; 0x01
    2ade:	8c 93       	st	X, r24
    2ae0:	26 81       	ldd	r18, Z+6	; 0x06
    2ae2:	37 81       	ldd	r19, Z+7	; 0x07
    2ae4:	2f 5f       	subi	r18, 0xFF	; 255
    2ae6:	3f 4f       	sbci	r19, 0xFF	; 255
    2ae8:	26 83       	std	Z+6, r18	; 0x06
    2aea:	37 83       	std	Z+7, r19	; 0x07
    2aec:	14 c0       	rjmp	.+40     	; 0x2b16 <fputc+0x6e>
    2aee:	8b 01       	movw	r16, r22
    2af0:	ec 01       	movw	r28, r24
    2af2:	fb 01       	movw	r30, r22
    2af4:	00 84       	ldd	r0, Z+8	; 0x08
    2af6:	f1 85       	ldd	r31, Z+9	; 0x09
    2af8:	e0 2d       	mov	r30, r0
    2afa:	09 95       	icall
    2afc:	89 2b       	or	r24, r25
    2afe:	e1 f6       	brne	.-72     	; 0x2ab8 <fputc+0x10>
    2b00:	d8 01       	movw	r26, r16
    2b02:	16 96       	adiw	r26, 0x06	; 6
    2b04:	8d 91       	ld	r24, X+
    2b06:	9c 91       	ld	r25, X
    2b08:	17 97       	sbiw	r26, 0x07	; 7
    2b0a:	01 96       	adiw	r24, 0x01	; 1
    2b0c:	16 96       	adiw	r26, 0x06	; 6
    2b0e:	8d 93       	st	X+, r24
    2b10:	9c 93       	st	X, r25
    2b12:	17 97       	sbiw	r26, 0x07	; 7
    2b14:	ce 01       	movw	r24, r28
    2b16:	df 91       	pop	r29
    2b18:	cf 91       	pop	r28
    2b1a:	1f 91       	pop	r17
    2b1c:	0f 91       	pop	r16
    2b1e:	08 95       	ret

00002b20 <__ultoa_invert>:
    2b20:	fa 01       	movw	r30, r20
    2b22:	aa 27       	eor	r26, r26
    2b24:	28 30       	cpi	r18, 0x08	; 8
    2b26:	51 f1       	breq	.+84     	; 0x2b7c <__ultoa_invert+0x5c>
    2b28:	20 31       	cpi	r18, 0x10	; 16
    2b2a:	81 f1       	breq	.+96     	; 0x2b8c <__ultoa_invert+0x6c>
    2b2c:	e8 94       	clt
    2b2e:	6f 93       	push	r22
    2b30:	6e 7f       	andi	r22, 0xFE	; 254
    2b32:	6e 5f       	subi	r22, 0xFE	; 254
    2b34:	7f 4f       	sbci	r23, 0xFF	; 255
    2b36:	8f 4f       	sbci	r24, 0xFF	; 255
    2b38:	9f 4f       	sbci	r25, 0xFF	; 255
    2b3a:	af 4f       	sbci	r26, 0xFF	; 255
    2b3c:	b1 e0       	ldi	r27, 0x01	; 1
    2b3e:	3e d0       	rcall	.+124    	; 0x2bbc <__ultoa_invert+0x9c>
    2b40:	b4 e0       	ldi	r27, 0x04	; 4
    2b42:	3c d0       	rcall	.+120    	; 0x2bbc <__ultoa_invert+0x9c>
    2b44:	67 0f       	add	r22, r23
    2b46:	78 1f       	adc	r23, r24
    2b48:	89 1f       	adc	r24, r25
    2b4a:	9a 1f       	adc	r25, r26
    2b4c:	a1 1d       	adc	r26, r1
    2b4e:	68 0f       	add	r22, r24
    2b50:	79 1f       	adc	r23, r25
    2b52:	8a 1f       	adc	r24, r26
    2b54:	91 1d       	adc	r25, r1
    2b56:	a1 1d       	adc	r26, r1
    2b58:	6a 0f       	add	r22, r26
    2b5a:	71 1d       	adc	r23, r1
    2b5c:	81 1d       	adc	r24, r1
    2b5e:	91 1d       	adc	r25, r1
    2b60:	a1 1d       	adc	r26, r1
    2b62:	20 d0       	rcall	.+64     	; 0x2ba4 <__ultoa_invert+0x84>
    2b64:	09 f4       	brne	.+2      	; 0x2b68 <__ultoa_invert+0x48>
    2b66:	68 94       	set
    2b68:	3f 91       	pop	r19
    2b6a:	2a e0       	ldi	r18, 0x0A	; 10
    2b6c:	26 9f       	mul	r18, r22
    2b6e:	11 24       	eor	r1, r1
    2b70:	30 19       	sub	r19, r0
    2b72:	30 5d       	subi	r19, 0xD0	; 208
    2b74:	31 93       	st	Z+, r19
    2b76:	de f6       	brtc	.-74     	; 0x2b2e <__ultoa_invert+0xe>
    2b78:	cf 01       	movw	r24, r30
    2b7a:	08 95       	ret
    2b7c:	46 2f       	mov	r20, r22
    2b7e:	47 70       	andi	r20, 0x07	; 7
    2b80:	40 5d       	subi	r20, 0xD0	; 208
    2b82:	41 93       	st	Z+, r20
    2b84:	b3 e0       	ldi	r27, 0x03	; 3
    2b86:	0f d0       	rcall	.+30     	; 0x2ba6 <__ultoa_invert+0x86>
    2b88:	c9 f7       	brne	.-14     	; 0x2b7c <__ultoa_invert+0x5c>
    2b8a:	f6 cf       	rjmp	.-20     	; 0x2b78 <__ultoa_invert+0x58>
    2b8c:	46 2f       	mov	r20, r22
    2b8e:	4f 70       	andi	r20, 0x0F	; 15
    2b90:	40 5d       	subi	r20, 0xD0	; 208
    2b92:	4a 33       	cpi	r20, 0x3A	; 58
    2b94:	18 f0       	brcs	.+6      	; 0x2b9c <__ultoa_invert+0x7c>
    2b96:	49 5d       	subi	r20, 0xD9	; 217
    2b98:	31 fd       	sbrc	r19, 1
    2b9a:	40 52       	subi	r20, 0x20	; 32
    2b9c:	41 93       	st	Z+, r20
    2b9e:	02 d0       	rcall	.+4      	; 0x2ba4 <__ultoa_invert+0x84>
    2ba0:	a9 f7       	brne	.-22     	; 0x2b8c <__ultoa_invert+0x6c>
    2ba2:	ea cf       	rjmp	.-44     	; 0x2b78 <__ultoa_invert+0x58>
    2ba4:	b4 e0       	ldi	r27, 0x04	; 4
    2ba6:	a6 95       	lsr	r26
    2ba8:	97 95       	ror	r25
    2baa:	87 95       	ror	r24
    2bac:	77 95       	ror	r23
    2bae:	67 95       	ror	r22
    2bb0:	ba 95       	dec	r27
    2bb2:	c9 f7       	brne	.-14     	; 0x2ba6 <__ultoa_invert+0x86>
    2bb4:	00 97       	sbiw	r24, 0x00	; 0
    2bb6:	61 05       	cpc	r22, r1
    2bb8:	71 05       	cpc	r23, r1
    2bba:	08 95       	ret
    2bbc:	9b 01       	movw	r18, r22
    2bbe:	ac 01       	movw	r20, r24
    2bc0:	0a 2e       	mov	r0, r26
    2bc2:	06 94       	lsr	r0
    2bc4:	57 95       	ror	r21
    2bc6:	47 95       	ror	r20
    2bc8:	37 95       	ror	r19
    2bca:	27 95       	ror	r18
    2bcc:	ba 95       	dec	r27
    2bce:	c9 f7       	brne	.-14     	; 0x2bc2 <__ultoa_invert+0xa2>
    2bd0:	62 0f       	add	r22, r18
    2bd2:	73 1f       	adc	r23, r19
    2bd4:	84 1f       	adc	r24, r20
    2bd6:	95 1f       	adc	r25, r21
    2bd8:	a0 1d       	adc	r26, r0
    2bda:	08 95       	ret

00002bdc <__mulsi3>:
    2bdc:	db 01       	movw	r26, r22
    2bde:	8f 93       	push	r24
    2be0:	9f 93       	push	r25
    2be2:	0e 94 fe 15 	call	0x2bfc	; 0x2bfc <__muluhisi3>
    2be6:	bf 91       	pop	r27
    2be8:	af 91       	pop	r26
    2bea:	a2 9f       	mul	r26, r18
    2bec:	80 0d       	add	r24, r0
    2bee:	91 1d       	adc	r25, r1
    2bf0:	a3 9f       	mul	r26, r19
    2bf2:	90 0d       	add	r25, r0
    2bf4:	b2 9f       	mul	r27, r18
    2bf6:	90 0d       	add	r25, r0
    2bf8:	11 24       	eor	r1, r1
    2bfa:	08 95       	ret

00002bfc <__muluhisi3>:
    2bfc:	0e 94 09 16 	call	0x2c12	; 0x2c12 <__umulhisi3>
    2c00:	a5 9f       	mul	r26, r21
    2c02:	90 0d       	add	r25, r0
    2c04:	b4 9f       	mul	r27, r20
    2c06:	90 0d       	add	r25, r0
    2c08:	a4 9f       	mul	r26, r20
    2c0a:	80 0d       	add	r24, r0
    2c0c:	91 1d       	adc	r25, r1
    2c0e:	11 24       	eor	r1, r1
    2c10:	08 95       	ret

00002c12 <__umulhisi3>:
    2c12:	a2 9f       	mul	r26, r18
    2c14:	b0 01       	movw	r22, r0
    2c16:	b3 9f       	mul	r27, r19
    2c18:	c0 01       	movw	r24, r0
    2c1a:	a3 9f       	mul	r26, r19
    2c1c:	70 0d       	add	r23, r0
    2c1e:	81 1d       	adc	r24, r1
    2c20:	11 24       	eor	r1, r1
    2c22:	91 1d       	adc	r25, r1
    2c24:	b2 9f       	mul	r27, r18
    2c26:	70 0d       	add	r23, r0
    2c28:	81 1d       	adc	r24, r1
    2c2a:	11 24       	eor	r1, r1
    2c2c:	91 1d       	adc	r25, r1
    2c2e:	08 95       	ret

00002c30 <_exit>:
    2c30:	f8 94       	cli

00002c32 <__stop_program>:
    2c32:	ff cf       	rjmp	.-2      	; 0x2c32 <__stop_program>
